---
triple:          'arm64-apple-darwin'
binary-path:     a.out
relocations:
  - { offsetInCU: 0xA368, offset: 0xA368, size: 0x8, addend: 0x0, symName: __ZNSt3__124__put_character_sequenceB8ue170006IcNS_11char_traitsIcEEEERNS_13basic_ostreamIT_T0_EES7_PKS4_m, symObjAddr: 0x64C8, symBinAddr: 0x10000887C, symSize: 0x1EC }
  - { offsetInCU: 0x126C4, offset: 0x126C4, size: 0x8, addend: 0x0, symName: __ZNSt3__1lsB8ue170006INS_11char_traitsIcEEEERNS_13basic_ostreamIcT_EES6_PKc, symObjAddr: 0xB58, symBinAddr: 0x100002F0C, symSize: 0x48 }
  - { offsetInCU: 0x1270A, offset: 0x1270A, size: 0x8, addend: 0x0, symName: __ZNSt3__14endlB8ue170006IcNS_11char_traitsIcEEEERNS_13basic_ostreamIT_T0_EES7_, symObjAddr: 0xBCC, symBinAddr: 0x100002F80, symSize: 0x58 }
  - { offsetInCU: 0x1274A, offset: 0x1274A, size: 0x8, addend: 0x0, symName: __ZNSt3__17getlineB8ue170006IcNS_11char_traitsIcEENS_9allocatorIcEEEERNS_13basic_istreamIT_T0_EES9_RNS_12basic_stringIS6_S7_T1_EE, symObjAddr: 0xC50, symBinAddr: 0x100003004, symSize: 0x5C }
  - { offsetInCU: 0x12BCB, offset: 0x12BCB, size: 0x8, addend: 0x0, symName: __ZNSt3__17getlineB8ue170006IcNS_11char_traitsIcEENS_9allocatorIcEEEERNS_13basic_istreamIT_T0_EES9_RNS_12basic_stringIS6_S7_T1_EES6_, symObjAddr: 0xE14, symBinAddr: 0x1000031C8, symSize: 0x238 }
  - { offsetInCU: 0x12C9F, offset: 0x12C9F, size: 0x8, addend: 0x0, symName: __ZNSt3__1lsB8ue170006IcNS_11char_traitsIcEENS_9allocatorIcEEEERNS_13basic_ostreamIT_T0_EES9_RKNS_12basic_stringIS6_S7_T1_EE, symObjAddr: 0x1FF8, symBinAddr: 0x1000043AC, symSize: 0x4C }
  - { offsetInCU: 0x12D13, offset: 0x12D13, size: 0x8, addend: 0x0, symName: __ZNSt3__1lsB8ue170006INS_11char_traitsIcEEEERNS_13basic_ostreamIcT_EES6_c, symObjAddr: 0x4F2C, symBinAddr: 0x1000072E0, symSize: 0x34 }
  - { offsetInCU: 0x12D59, offset: 0x12D59, size: 0x8, addend: 0x0, symName: __ZNSt3__1rsB8ue170006IcNS_11char_traitsIcEENS_9allocatorIcEEEERNS_13basic_istreamIT_T0_EES9_RNS_12basic_stringIS6_S7_T1_EE, symObjAddr: 0x5168, symBinAddr: 0x10000751C, symSize: 0x308 }
  - { offsetInCU: 0x12E26, offset: 0x12E26, size: 0x8, addend: 0x0, symName: __ZNSt3__1eqB8ue170006INS_9allocatorIcEEEEbRKNS_12basic_stringIcNS_11char_traitsIcEET_EES9_, symObjAddr: 0x5470, symBinAddr: 0x100007824, symSize: 0x148 }
  - { offsetInCU: 0x12E99, offset: 0x12E99, size: 0x8, addend: 0x0, symName: __ZNSt3__119__libcpp_deallocateB8ue170006EPvmm, symObjAddr: 0x5A00, symBinAddr: 0x100007DB4, symSize: 0x60 }
  - { offsetInCU: 0x12EFE, offset: 0x12EFE, size: 0x8, addend: 0x0, symName: __ZNSt3__124__is_overaligned_for_newB8ue170006Em, symObjAddr: 0x5A6C, symBinAddr: 0x100007E20, symSize: 0x20 }
  - { offsetInCU: 0x12F2C, offset: 0x12F2C, size: 0x8, addend: 0x0, symName: __ZNSt3__127__do_deallocate_handle_sizeB8ue170006IJSt11align_val_tEEEvPvmDpT_, symObjAddr: 0x5A8C, symBinAddr: 0x100007E40, symSize: 0x30 }
  - { offsetInCU: 0x12F7F, offset: 0x12F7F, size: 0x8, addend: 0x0, symName: __ZNSt3__127__do_deallocate_handle_sizeB8ue170006IJEEEvPvmDpT_, symObjAddr: 0x5ABC, symBinAddr: 0x100007E70, symSize: 0x28 }
  - { offsetInCU: 0x12FBD, offset: 0x12FBD, size: 0x8, addend: 0x0, symName: __ZNSt3__124__libcpp_operator_deleteB8ue170006IJPvSt11align_val_tEEEvDpT_, symObjAddr: 0x5AE4, symBinAddr: 0x100007E98, symSize: 0x2C }
  - { offsetInCU: 0x13006, offset: 0x13006, size: 0x8, addend: 0x0, symName: __ZNSt3__124__libcpp_operator_deleteB8ue170006IJPvEEEvDpT_, symObjAddr: 0x5B10, symBinAddr: 0x100007EC4, symSize: 0x24 }
  - { offsetInCU: 0x1306E, offset: 0x1306E, size: 0x8, addend: 0x0, symName: __ZNSt3__112__to_addressB8ue170006IKcEEPT_S3_, symObjAddr: 0x63A4, symBinAddr: 0x100008758, symSize: 0x14 }
  - { offsetInCU: 0x130D6, offset: 0x130D6, size: 0x8, addend: 0x0, symName: __ZNSt3__116__pad_and_outputB8ue170006IcNS_11char_traitsIcEEEENS_19ostreambuf_iteratorIT_T0_EES6_PKS4_S8_S8_RNS_8ios_baseES4_, symObjAddr: 0x6704, symBinAddr: 0x100008AB8, symSize: 0x240 }
  - { offsetInCU: 0x131A5, offset: 0x131A5, size: 0x8, addend: 0x0, symName: __ZNSt3__112__to_addressB8ue170006IcEEPT_S2_, symObjAddr: 0x6B48, symBinAddr: 0x100008EFC, symSize: 0x14 }
  - { offsetInCU: 0x131DA, offset: 0x131DA, size: 0x8, addend: 0x0, symName: __ZNSt3__19use_facetB8ue170006INS_5ctypeIcEEEERKT_RKNS_6localeE, symObjAddr: 0x6CEC, symBinAddr: 0x1000090A0, symSize: 0x2C }
  - { offsetInCU: 0x135B8, offset: 0x135B8, size: 0x8, addend: 0x0, symName: __ZNSt3__118__constexpr_strlenB8ue170006EPKc, symObjAddr: 0x6D50, symBinAddr: 0x100009104, symSize: 0x24 }
  - { offsetInCU: 0x135E4, offset: 0x135E4, size: 0x8, addend: 0x0, symName: __ZNSt3__112__to_addressB8ue170006INS_12basic_stringIcNS_11char_traitsIcEENS_9allocatorIcEEEEEEPT_S8_, symObjAddr: 0x728C, symBinAddr: 0x100009640, symSize: 0x14 }
  - { offsetInCU: 0x13805, offset: 0x13805, size: 0x8, addend: 0x0, symName: __ZNSt3__13maxB8ue170006ImEERKT_S3_S3_, symObjAddr: 0x80E4, symBinAddr: 0x10000A498, symSize: 0x2C }
  - { offsetInCU: 0x13848, offset: 0x13848, size: 0x8, addend: 0x0, symName: __ZNSt3__13minB8ue170006ImEERKT_S3_S3_, symObjAddr: 0x8110, symBinAddr: 0x10000A4C4, symSize: 0x2C }
  - { offsetInCU: 0x13A75, offset: 0x13A75, size: 0x8, addend: 0x0, symName: __ZNSt3__13minB8ue170006ImNS_6__lessIvvEEEERKT_S5_S5_T0_, symObjAddr: 0x819C, symBinAddr: 0x10000A550, symSize: 0x54 }
  - { offsetInCU: 0x13B14, offset: 0x13B14, size: 0x8, addend: 0x0, symName: __ZNSt3__120__throw_length_errorB8ue170006EPKc, symObjAddr: 0x827C, symBinAddr: 0x10000A630, symSize: 0x64 }
  - { offsetInCU: 0x13B3E, offset: 0x13B3E, size: 0x8, addend: 0x0, symName: __ZNSt3__13maxB8ue170006ImNS_6__lessIvvEEEERKT_S5_S5_T0_, symObjAddr: 0x8360, symBinAddr: 0x10000A714, symSize: 0x54 }
  - { offsetInCU: 0x13B98, offset: 0x13B98, size: 0x8, addend: 0x0, symName: __ZNSt3__119__allocate_at_leastB8ue170006INS_9allocatorINS_12basic_stringIcNS_11char_traitsIcEENS1_IcEEEEEEEENS_19__allocation_resultINS_16allocator_traitsIT_E7pointerEEERSA_m, symObjAddr: 0x84D0, symBinAddr: 0x10000A884, symSize: 0x40 }
  - { offsetInCU: 0x13BDB, offset: 0x13BDB, size: 0x8, addend: 0x0, symName: __ZNSt3__117__libcpp_allocateB8ue170006Emm, symObjAddr: 0x8658, symBinAddr: 0x10000AA0C, symSize: 0x60 }
  - { offsetInCU: 0x13C35, offset: 0x13C35, size: 0x8, addend: 0x0, symName: __ZNSt3__121__libcpp_operator_newB8ue170006IJmSt11align_val_tEEEPvDpT_, symObjAddr: 0x86B8, symBinAddr: 0x10000AA6C, symSize: 0x2C }
  - { offsetInCU: 0x13C82, offset: 0x13C82, size: 0x8, addend: 0x0, symName: __ZNSt3__121__libcpp_operator_newB8ue170006IJmEEEPvDpT_, symObjAddr: 0x86E4, symBinAddr: 0x10000AA98, symSize: 0x24 }
  - { offsetInCU: 0x13CBB, offset: 0x13CBB, size: 0x8, addend: 0x0, symName: __ZNSt3__142__uninitialized_allocator_move_if_noexceptB8ue170006INS_9allocatorINS_12basic_stringIcNS_11char_traitsIcEENS1_IcEEEEEENS_16reverse_iteratorIPS6_EESA_SA_EET2_RT_T0_T1_SB_, symObjAddr: 0x876C, symBinAddr: 0x10000AB20, symSize: 0x12C }
  - { offsetInCU: 0x13D5B, offset: 0x13D5B, size: 0x8, addend: 0x0, symName: __ZNSt3__14swapB8ue170006IPNS_12basic_stringIcNS_11char_traitsIcEENS_9allocatorIcEEEEEENS_9enable_ifIXaasr21is_move_constructibleIT_EE5valuesr18is_move_assignableIS9_EE5valueEvE4typeERS9_SC_, symObjAddr: 0x88E4, symBinAddr: 0x10000AC98, symSize: 0x3C }
  - { offsetInCU: 0x13DAC, offset: 0x13DAC, size: 0x8, addend: 0x0, symName: __ZNSt3__122__make_exception_guardB8ue170006INS_29_AllocatorDestroyRangeReverseINS_9allocatorINS_12basic_stringIcNS_11char_traitsIcEENS2_IcEEEEEENS_16reverse_iteratorIPS7_EEEEEENS_28__exception_guard_exceptionsIT_EESE_, symObjAddr: 0x89E8, symBinAddr: 0x10000AD9C, symSize: 0x4C }
  - { offsetInCU: 0x13DE2, offset: 0x13DE2, size: 0x8, addend: 0x0, symName: __ZNSt3__1neB8ue170006IPNS_12basic_stringIcNS_11char_traitsIcEENS_9allocatorIcEEEES7_EEbRKNS_16reverse_iteratorIT_EERKNS8_IT0_EE, symObjAddr: 0x8A78, symBinAddr: 0x10000AE2C, symSize: 0x48 }
  - { offsetInCU: 0x13E2E, offset: 0x13E2E, size: 0x8, addend: 0x0, symName: __ZNSt3__112__to_addressB8ue170006INS_16reverse_iteratorIPNS_12basic_stringIcNS_11char_traitsIcEENS_9allocatorIcEEEEEEvEEu7__decayIDTclsr19__to_address_helperIT_EE6__callclsr3stdE7declvalIRKSA_EEEEESC_, symObjAddr: 0x8AF4, symBinAddr: 0x10000AEA8, symSize: 0x24 }
  - { offsetInCU: 0x13E8D, offset: 0x13E8D, size: 0x8, addend: 0x0, symName: __ZNSt3__119__allocator_destroyB8ue170006INS_9allocatorINS_12basic_stringIcNS_11char_traitsIcEENS1_IcEEEEEENS_16reverse_iteratorINS8_IPS6_EEEESB_EEvRT_T0_T1_, symObjAddr: 0x8E50, symBinAddr: 0x10000B204, symSize: 0x70 }
  - { offsetInCU: 0x13EF2, offset: 0x13EF2, size: 0x8, addend: 0x0, symName: __ZNSt3__1neB8ue170006INS_16reverse_iteratorIPNS_12basic_stringIcNS_11char_traitsIcEENS_9allocatorIcEEEEEES9_EEbRKNS1_IT_EERKNS1_IT0_EE, symObjAddr: 0x8EFC, symBinAddr: 0x10000B2B0, symSize: 0x60 }
  - { offsetInCU: 0x13F3E, offset: 0x13F3E, size: 0x8, addend: 0x0, symName: __ZNSt3__112__to_addressB8ue170006INS_16reverse_iteratorINS1_IPNS_12basic_stringIcNS_11char_traitsIcEENS_9allocatorIcEEEEEEEEvEEu7__decayIDTclsr19__to_address_helperIT_EE6__callclsr3stdE7declvalIRKSB_EEEEESD_, symObjAddr: 0x8F5C, symBinAddr: 0x10000B310, symSize: 0x24 }
  - { offsetInCU: 0x13F9D, offset: 0x13F9D, size: 0x8, addend: 0x0, symName: __ZNSt3__112__to_addressB8ue170006I6PlayerEEPT_S3_, symObjAddr: 0x978C, symBinAddr: 0x10000BB40, symSize: 0x14 }
  - { offsetInCU: 0x13FD2, offset: 0x13FD2, size: 0x8, addend: 0x0, symName: __ZNSt3__119__allocate_at_leastB8ue170006INS_9allocatorI6PlayerEEEENS_19__allocation_resultINS_16allocator_traitsIT_E7pointerEEERS6_m, symObjAddr: 0xA190, symBinAddr: 0x10000C544, symSize: 0x40 }
  - { offsetInCU: 0x14015, offset: 0x14015, size: 0x8, addend: 0x0, symName: __ZNSt3__142__uninitialized_allocator_move_if_noexceptB8ue170006INS_9allocatorI6PlayerEENS_16reverse_iteratorIPS2_EES6_S6_EET2_RT_T0_T1_S7_, symObjAddr: 0xA348, symBinAddr: 0x10000C6FC, symSize: 0x12C }
  - { offsetInCU: 0x140B5, offset: 0x140B5, size: 0x8, addend: 0x0, symName: __ZNSt3__14swapB8ue170006IP6PlayerEENS_9enable_ifIXaasr21is_move_constructibleIT_EE5valuesr18is_move_assignableIS4_EE5valueEvE4typeERS4_S7_, symObjAddr: 0xA4C0, symBinAddr: 0x10000C874, symSize: 0x3C }
  - { offsetInCU: 0x14106, offset: 0x14106, size: 0x8, addend: 0x0, symName: __ZNSt3__122__make_exception_guardB8ue170006INS_29_AllocatorDestroyRangeReverseINS_9allocatorI6PlayerEENS_16reverse_iteratorIPS3_EEEEEENS_28__exception_guard_exceptionsIT_EESA_, symObjAddr: 0xA5C4, symBinAddr: 0x10000C978, symSize: 0x4C }
  - { offsetInCU: 0x1413C, offset: 0x1413C, size: 0x8, addend: 0x0, symName: __ZNSt3__1neB8ue170006IP6PlayerS2_EEbRKNS_16reverse_iteratorIT_EERKNS3_IT0_EE, symObjAddr: 0xA654, symBinAddr: 0x10000CA08, symSize: 0x48 }
  - { offsetInCU: 0x14188, offset: 0x14188, size: 0x8, addend: 0x0, symName: __ZNSt3__112__to_addressB8ue170006INS_16reverse_iteratorIP6PlayerEEvEEu7__decayIDTclsr19__to_address_helperIT_EE6__callclsr3stdE7declvalIRKS5_EEEEES7_, symObjAddr: 0xA69C, symBinAddr: 0x10000CA50, symSize: 0x24 }
  - { offsetInCU: 0x141E7, offset: 0x141E7, size: 0x8, addend: 0x0, symName: __ZNSt3__119__allocator_destroyB8ue170006INS_9allocatorI6PlayerEENS_16reverse_iteratorINS4_IPS2_EEEES7_EEvRT_T0_T1_, symObjAddr: 0xA94C, symBinAddr: 0x10000CD00, symSize: 0x70 }
  - { offsetInCU: 0x1424C, offset: 0x1424C, size: 0x8, addend: 0x0, symName: __ZNSt3__1neB8ue170006INS_16reverse_iteratorIP6PlayerEES4_EEbRKNS1_IT_EERKNS1_IT0_EE, symObjAddr: 0xA9F8, symBinAddr: 0x10000CDAC, symSize: 0x60 }
  - { offsetInCU: 0x14298, offset: 0x14298, size: 0x8, addend: 0x0, symName: __ZNSt3__112__to_addressB8ue170006INS_16reverse_iteratorINS1_IP6PlayerEEEEvEEu7__decayIDTclsr19__to_address_helperIT_EE6__callclsr3stdE7declvalIRKS6_EEEEES8_, symObjAddr: 0xAA58, symBinAddr: 0x10000CE0C, symSize: 0x24 }
  - { offsetInCU: 0x142F7, offset: 0x142F7, size: 0x8, addend: 0x0, symName: __ZNSt3__1miB8ue170006IPK6PlayerS3_EEDTmicldtfp_4baseEcldtfp0_4baseEERKNS_11__wrap_iterIT_EERKNS5_IT0_EE, symObjAddr: 0xAE44, symBinAddr: 0x10000D1F8, symSize: 0x48 }
  - { offsetInCU: 0x14343, offset: 0x14343, size: 0x8, addend: 0x0, symName: __ZNSt3__14moveB8ue170006IP6PlayerS2_EET0_T_S4_S3_, symObjAddr: 0xAF04, symBinAddr: 0x10000D2B8, symSize: 0x40 }
  - { offsetInCU: 0x1439D, offset: 0x1439D, size: 0x8, addend: 0x0, symName: __ZNSt3__16__moveB8ue170006INS_17_ClassicAlgPolicyEP6PlayerS3_S3_EENS_4pairIT0_T2_EES5_T1_S6_, symObjAddr: 0xB0E0, symBinAddr: 0x10000D494, symSize: 0x44 }
  - { offsetInCU: 0x14409, offset: 0x14409, size: 0x8, addend: 0x0, symName: __ZNSt3__123__dispatch_copy_or_moveB8ue170006INS_17_ClassicAlgPolicyENS_11__move_loopIS1_EENS_14__move_trivialEP6PlayerS6_S6_EENS_4pairIT2_T4_EES8_T3_S9_, symObjAddr: 0xB124, symBinAddr: 0x10000D4D8, symSize: 0x44 }
  - { offsetInCU: 0x14487, offset: 0x14487, size: 0x8, addend: 0x0, symName: __ZNSt3__121__unwrap_and_dispatchB8ue170006INS_10__overloadINS_11__move_loopINS_17_ClassicAlgPolicyEEENS_14__move_trivialEEEP6PlayerS8_S8_Li0EEENS_4pairIT0_T2_EESA_T1_SB_, symObjAddr: 0xB168, symBinAddr: 0x10000D51C, symSize: 0xB4 }
  - { offsetInCU: 0x14515, offset: 0x14515, size: 0x8, addend: 0x0, symName: __ZNSt3__114__unwrap_rangeB8ue170006IP6PlayerS2_EENS_4pairIT0_S4_EET_S6_, symObjAddr: 0xB21C, symBinAddr: 0x10000D5D0, symSize: 0x60 }
  - { offsetInCU: 0x14690, offset: 0x14690, size: 0x8, addend: 0x0, symName: __ZNSt3__113__unwrap_iterB8ue170006IP6PlayerNS_18__unwrap_iter_implIS2_Lb1EEELi0EEEDTclsrT0_8__unwrapclsr3stdE7declvalIT_EEEES6_, symObjAddr: 0xB30C, symBinAddr: 0x10000D6C0, symSize: 0x24 }
  - { offsetInCU: 0x146D4, offset: 0x146D4, size: 0x8, addend: 0x0, symName: __ZNSt3__19make_pairB8ue170006IP6PlayerS2_EENS_4pairINS_18__unwrap_ref_decayIT_E4typeENS4_IT0_E4typeEEEOS5_OS8_, symObjAddr: 0xB330, symBinAddr: 0x10000D6E4, symSize: 0x38 }
  - { offsetInCU: 0x14723, offset: 0x14723, size: 0x8, addend: 0x0, symName: __ZNSt3__114__rewrap_rangeB8ue170006IP6PlayerS2_EET_S3_T0_, symObjAddr: 0xB368, symBinAddr: 0x10000D71C, symSize: 0x2C }
  - { offsetInCU: 0x1476F, offset: 0x1476F, size: 0x8, addend: 0x0, symName: __ZNSt3__113__rewrap_iterB8ue170006IP6PlayerS2_NS_18__unwrap_iter_implIS2_Lb1EEEEET_S5_T0_, symObjAddr: 0xB394, symBinAddr: 0x10000D748, symSize: 0x3C }
  - { offsetInCU: 0x14881, offset: 0x14881, size: 0x8, addend: 0x0, symName: __ZNSt3__112__to_addressB8ue170006I5EventEEPT_S3_, symObjAddr: 0xBA70, symBinAddr: 0x10000DE24, symSize: 0x14 }
  - { offsetInCU: 0x148B6, offset: 0x148B6, size: 0x8, addend: 0x0, symName: __ZNSt3__119__allocate_at_leastB8ue170006INS_9allocatorI5EventEEEENS_19__allocation_resultINS_16allocator_traitsIT_E7pointerEEERS6_m, symObjAddr: 0xC338, symBinAddr: 0x10000E6EC, symSize: 0x40 }
  - { offsetInCU: 0x148F9, offset: 0x148F9, size: 0x8, addend: 0x0, symName: __ZNSt3__142__uninitialized_allocator_move_if_noexceptB8ue170006INS_9allocatorI5EventEENS_16reverse_iteratorIPS2_EES6_S6_EET2_RT_T0_T1_S7_, symObjAddr: 0xC4F0, symBinAddr: 0x10000E8A4, symSize: 0x12C }
  - { offsetInCU: 0x14999, offset: 0x14999, size: 0x8, addend: 0x0, symName: __ZNSt3__14swapB8ue170006IP5EventEENS_9enable_ifIXaasr21is_move_constructibleIT_EE5valuesr18is_move_assignableIS4_EE5valueEvE4typeERS4_S7_, symObjAddr: 0xC668, symBinAddr: 0x10000EA1C, symSize: 0x3C }
  - { offsetInCU: 0x149EA, offset: 0x149EA, size: 0x8, addend: 0x0, symName: __ZNSt3__122__make_exception_guardB8ue170006INS_29_AllocatorDestroyRangeReverseINS_9allocatorI5EventEENS_16reverse_iteratorIPS3_EEEEEENS_28__exception_guard_exceptionsIT_EESA_, symObjAddr: 0xC76C, symBinAddr: 0x10000EB20, symSize: 0x4C }
  - { offsetInCU: 0x14A20, offset: 0x14A20, size: 0x8, addend: 0x0, symName: __ZNSt3__1neB8ue170006IP5EventS2_EEbRKNS_16reverse_iteratorIT_EERKNS3_IT0_EE, symObjAddr: 0xC7FC, symBinAddr: 0x10000EBB0, symSize: 0x48 }
  - { offsetInCU: 0x14A6C, offset: 0x14A6C, size: 0x8, addend: 0x0, symName: __ZNSt3__112__to_addressB8ue170006INS_16reverse_iteratorIP5EventEEvEEu7__decayIDTclsr19__to_address_helperIT_EE6__callclsr3stdE7declvalIRKS5_EEEEES7_, symObjAddr: 0xC878, symBinAddr: 0x10000EC2C, symSize: 0x24 }
  - { offsetInCU: 0x14ACB, offset: 0x14ACB, size: 0x8, addend: 0x0, symName: __ZNSt3__119__allocator_destroyB8ue170006INS_9allocatorI5EventEENS_16reverse_iteratorINS4_IPS2_EEEES7_EEvRT_T0_T1_, symObjAddr: 0xCBD4, symBinAddr: 0x10000EF88, symSize: 0x70 }
  - { offsetInCU: 0x14B30, offset: 0x14B30, size: 0x8, addend: 0x0, symName: __ZNSt3__1neB8ue170006INS_16reverse_iteratorIP5EventEES4_EEbRKNS1_IT_EERKNS1_IT0_EE, symObjAddr: 0xCC80, symBinAddr: 0x10000F034, symSize: 0x60 }
  - { offsetInCU: 0x14B7C, offset: 0x14B7C, size: 0x8, addend: 0x0, symName: __ZNSt3__112__to_addressB8ue170006INS_16reverse_iteratorINS1_IP5EventEEEEvEEu7__decayIDTclsr19__to_address_helperIT_EE6__callclsr3stdE7declvalIRKS6_EEEEES8_, symObjAddr: 0xCCE0, symBinAddr: 0x10000F094, symSize: 0x24 }
  - { offsetInCU: 0x150A2, offset: 0x150A2, size: 0x8, addend: 0x0, symName: __ZSt28__throw_bad_array_new_lengthB8ue170006v, symObjAddr: 0x8624, symBinAddr: 0x10000A9D8, symSize: 0x34 }
  - { offsetInCU: 0x15AD6, offset: 0x15AD6, size: 0x8, addend: 0x0, symName: __ZNSt3__16vectorINS_12basic_stringIcNS_11char_traitsIcEENS_9allocatorIcEEEENS4_IS6_EEE26__swap_out_circular_bufferERNS_14__split_bufferIS6_RS7_EE, symObjAddr: 0x7F2C, symBinAddr: 0x10000A2E0, symSize: 0x110 }
  - { offsetInCU: 0x161A3, offset: 0x161A3, size: 0x8, addend: 0x0, symName: __ZNSt3__16vectorI6PlayerNS_9allocatorIS1_EEE26__swap_out_circular_bufferERNS_14__split_bufferIS1_RS3_EE, symObjAddr: 0x9E20, symBinAddr: 0x10000C1D4, symSize: 0x110 }
  - { offsetInCU: 0x164D4, offset: 0x164D4, size: 0x8, addend: 0x0, symName: __ZNSt3__16vectorI5EventNS_9allocatorIS1_EEE26__swap_out_circular_bufferERNS_14__split_bufferIS1_RS3_EE, symObjAddr: 0xBFC8, symBinAddr: 0x10000E37C, symSize: 0x110 }
  - { offsetInCU: 0x18D7B, offset: 0x18D7B, size: 0x8, addend: 0x0, symName: __ZN4GameC2Ev, symObjAddr: 0x0, symBinAddr: 0x1000023B4, symSize: 0x484 }
  - { offsetInCU: 0x18DBB, offset: 0x18DBB, size: 0x8, addend: 0x0, symName: __ZN6PlayerD1Ev, symObjAddr: 0x484, symBinAddr: 0x100002838, symSize: 0x2C }
  - { offsetInCU: 0x18DE7, offset: 0x18DE7, size: 0x8, addend: 0x0, symName: __ZN7AdvisorD1Ev, symObjAddr: 0x4B0, symBinAddr: 0x100002864, symSize: 0x2C }
  - { offsetInCU: 0x18E13, offset: 0x18E13, size: 0x8, addend: 0x0, symName: __ZN5EventD1Ev, symObjAddr: 0x4DC, symBinAddr: 0x100002890, symSize: 0x2C }
  - { offsetInCU: 0x18E3F, offset: 0x18E3F, size: 0x8, addend: 0x0, symName: __ZN7RiddlesD1Ev, symObjAddr: 0x508, symBinAddr: 0x1000028BC, symSize: 0x2C }
  - { offsetInCU: 0x18E75, offset: 0x18E75, size: 0x8, addend: 0x0, symName: __ZN7AdvisoraSEOS_, symObjAddr: 0x534, symBinAddr: 0x1000028E8, symSize: 0x6C }
  - { offsetInCU: 0x18EA6, offset: 0x18EA6, size: 0x8, addend: 0x0, symName: __ZN4GameC1Ev, symObjAddr: 0x5A0, symBinAddr: 0x100002954, symSize: 0x2C }
  - { offsetInCU: 0x18ED2, offset: 0x18ED2, size: 0x8, addend: 0x0, symName: __ZN4Game11loadRiddlesENSt3__112basic_stringIcNS0_11char_traitsIcEENS0_9allocatorIcEEEEP7Riddles, symObjAddr: 0x5CC, symBinAddr: 0x100002980, symSize: 0x3F4 }
  - { offsetInCU: 0x190BF, offset: 0x190BF, size: 0x8, addend: 0x0, symName: __ZNSt3__114basic_ifstreamIcNS_11char_traitsIcEEEC1ERKNS_12basic_stringIcS2_NS_9allocatorIcEEEEj, symObjAddr: 0x9C0, symBinAddr: 0x100002D74, symSize: 0x16C }
  - { offsetInCU: 0x19109, offset: 0x19109, size: 0x8, addend: 0x0, symName: __ZNKSt3__114basic_ifstreamIcNS_11char_traitsIcEEE7is_openEv, symObjAddr: 0xB2C, symBinAddr: 0x100002EE0, symSize: 0x2C }
  - { offsetInCU: 0x19131, offset: 0x19131, size: 0x8, addend: 0x0, symName: __ZNSt3__113basic_ostreamIcNS_11char_traitsIcEEElsB8ue170006EPFRS3_S4_E, symObjAddr: 0xBA0, symBinAddr: 0x100002F54, symSize: 0x2C }
  - { offsetInCU: 0x19165, offset: 0x19165, size: 0x8, addend: 0x0, symName: __ZNSt3__112basic_stringIcNS_11char_traitsIcEENS_9allocatorIcEEEC1B8ue170006Ev, symObjAddr: 0xC24, symBinAddr: 0x100002FD8, symSize: 0x2C }
  - { offsetInCU: 0x1918F, offset: 0x1918F, size: 0x8, addend: 0x0, symName: __ZNKSt3__19basic_iosIcNS_11char_traitsIcEEEcvbB8ue170006Ev, symObjAddr: 0xCAC, symBinAddr: 0x100003060, symSize: 0x2C }
  - { offsetInCU: 0x191B5, offset: 0x191B5, size: 0x8, addend: 0x0, symName: __ZNSt3__16vectorINS_12basic_stringIcNS_11char_traitsIcEENS_9allocatorIcEEEENS4_IS6_EEEC1B8ue170006Ev, symObjAddr: 0xCD8, symBinAddr: 0x10000308C, symSize: 0x2C }
  - { offsetInCU: 0x1923E, offset: 0x1923E, size: 0x8, addend: 0x0, symName: __ZNSt3__118basic_stringstreamIcNS_11char_traitsIcEENS_9allocatorIcEEEC1B8ue170006ERKNS_12basic_stringIcS2_S4_EEj, symObjAddr: 0xD04, symBinAddr: 0x1000030B8, symSize: 0x110 }
  - { offsetInCU: 0x19286, offset: 0x19286, size: 0x8, addend: 0x0, symName: __ZNSt3__16vectorINS_12basic_stringIcNS_11char_traitsIcEENS_9allocatorIcEEEENS4_IS6_EEE9push_backB8ue170006ERKS6_, symObjAddr: 0x104C, symBinAddr: 0x100003400, symSize: 0x6C }
  - { offsetInCU: 0x192BD, offset: 0x192BD, size: 0x8, addend: 0x0, symName: __ZNKSt3__16vectorINS_12basic_stringIcNS_11char_traitsIcEENS_9allocatorIcEEEENS4_IS6_EEE4sizeB8ue170006Ev, symObjAddr: 0x10B8, symBinAddr: 0x10000346C, symSize: 0x28 }
  - { offsetInCU: 0x192E3, offset: 0x192E3, size: 0x8, addend: 0x0, symName: __ZNSt3__16vectorINS_12basic_stringIcNS_11char_traitsIcEENS_9allocatorIcEEEENS4_IS6_EEEixB8ue170006Em, symObjAddr: 0x10E0, symBinAddr: 0x100003494, symSize: 0x2C }
  - { offsetInCU: 0x19324, offset: 0x19324, size: 0x8, addend: 0x0, symName: __ZN7RiddlesaSEOS_, symObjAddr: 0x110C, symBinAddr: 0x1000034C0, symSize: 0x48 }
  - { offsetInCU: 0x1935A, offset: 0x1935A, size: 0x8, addend: 0x0, symName: __ZNSt3__118basic_stringstreamIcNS_11char_traitsIcEENS_9allocatorIcEEED1Ev, symObjAddr: 0x1154, symBinAddr: 0x100003508, symSize: 0x40 }
  - { offsetInCU: 0x19387, offset: 0x19387, size: 0x8, addend: 0x0, symName: __ZNSt3__16vectorINS_12basic_stringIcNS_11char_traitsIcEENS_9allocatorIcEEEENS4_IS6_EEED1B8ue170006Ev, symObjAddr: 0x1194, symBinAddr: 0x100003548, symSize: 0x2C }
  - { offsetInCU: 0x193B1, offset: 0x193B1, size: 0x8, addend: 0x0, symName: __ZNSt3__114basic_ifstreamIcNS_11char_traitsIcEEE5closeEv, symObjAddr: 0x11C0, symBinAddr: 0x100003574, symSize: 0x58 }
  - { offsetInCU: 0x193DE, offset: 0x193DE, size: 0x8, addend: 0x0, symName: __ZNSt3__114basic_ifstreamIcNS_11char_traitsIcEEED1Ev, symObjAddr: 0x1218, symBinAddr: 0x1000035CC, symSize: 0x40 }
  - { offsetInCU: 0x1940B, offset: 0x1940B, size: 0x8, addend: 0x0, symName: __ZN4Game10loadEventsENSt3__112basic_stringIcNS0_11char_traitsIcEENS0_9allocatorIcEEEEP5Event, symObjAddr: 0x1258, symBinAddr: 0x10000360C, symSize: 0x434 }
  - { offsetInCU: 0x194FA, offset: 0x194FA, size: 0x8, addend: 0x0, symName: __ZN5EventaSEOS_, symObjAddr: 0x168C, symBinAddr: 0x100003A40, symSize: 0x48 }
  - { offsetInCU: 0x1952B, offset: 0x1952B, size: 0x8, addend: 0x0, symName: __ZN4Game11loadAdvisorENSt3__112basic_stringIcNS0_11char_traitsIcEENS0_9allocatorIcEEEEP7Advisor, symObjAddr: 0x16D4, symBinAddr: 0x100003A88, symSize: 0x454 }
  - { offsetInCU: 0x19606, offset: 0x19606, size: 0x8, addend: 0x0, symName: __ZN4Game13chooseAdvisorEi, symObjAddr: 0x1B28, symBinAddr: 0x100003EDC, symSize: 0x4D0 }
  - { offsetInCU: 0x19685, offset: 0x19685, size: 0x8, addend: 0x0, symName: __ZN7AdvisorC1ERKS_, symObjAddr: 0x2044, symBinAddr: 0x1000043F8, symSize: 0x34 }
  - { offsetInCU: 0x196BA, offset: 0x196BA, size: 0x8, addend: 0x0, symName: __ZN4Game14whichCharacterEv, symObjAddr: 0x2078, symBinAddr: 0x10000442C, symSize: 0xAD8 }
  - { offsetInCU: 0x197F4, offset: 0x197F4, size: 0x8, addend: 0x0, symName: __ZNSt3__114basic_ifstreamIcNS_11char_traitsIcEEEC1EPKcj, symObjAddr: 0x2B50, symBinAddr: 0x100004F04, symSize: 0x16C }
  - { offsetInCU: 0x1983E, offset: 0x1983E, size: 0x8, addend: 0x0, symName: __ZNSt3__16vectorI6PlayerNS_9allocatorIS1_EEEC1B8ue170006Ev, symObjAddr: 0x2CBC, symBinAddr: 0x100005070, symSize: 0x2C }
  - { offsetInCU: 0x19868, offset: 0x19868, size: 0x8, addend: 0x0, symName: __ZNSt3__16vectorI6PlayerNS_9allocatorIS1_EEE9push_backB8ue170006EOS1_, symObjAddr: 0x2CE8, symBinAddr: 0x10000509C, symSize: 0x6C }
  - { offsetInCU: 0x1989F, offset: 0x1989F, size: 0x8, addend: 0x0, symName: __ZNKSt3__16vectorI6PlayerNS_9allocatorIS1_EEE4sizeB8ue170006Ev, symObjAddr: 0x2D54, symBinAddr: 0x100005108, symSize: 0x28 }
  - { offsetInCU: 0x198C5, offset: 0x198C5, size: 0x8, addend: 0x0, symName: __ZNSt3__16vectorI6PlayerNS_9allocatorIS1_EEEixB8ue170006Em, symObjAddr: 0x2D7C, symBinAddr: 0x100005130, symSize: 0x2C }
  - { offsetInCU: 0x198FC, offset: 0x198FC, size: 0x8, addend: 0x0, symName: __ZN6PlayeraSERKS_, symObjAddr: 0x2DA8, symBinAddr: 0x10000515C, symSize: 0x68 }
  - { offsetInCU: 0x1992D, offset: 0x1992D, size: 0x8, addend: 0x0, symName: __ZNSt3__16vectorI6PlayerNS_9allocatorIS1_EEE5eraseB8ue170006ENS_11__wrap_iterIPKS1_EE, symObjAddr: 0x2E10, symBinAddr: 0x1000051C4, symSize: 0x9C }
  - { offsetInCU: 0x19982, offset: 0x19982, size: 0x8, addend: 0x0, symName: __ZNSt3__16vectorI6PlayerNS_9allocatorIS1_EEE5beginB8ue170006Ev, symObjAddr: 0x2EAC, symBinAddr: 0x100005260, symSize: 0x30 }
  - { offsetInCU: 0x199AA, offset: 0x199AA, size: 0x8, addend: 0x0, symName: __ZNKSt3__111__wrap_iterIP6PlayerEplB8ue170006El, symObjAddr: 0x2EDC, symBinAddr: 0x100005290, symSize: 0x3C }
  - { offsetInCU: 0x199F6, offset: 0x199F6, size: 0x8, addend: 0x0, symName: __ZNSt3__111__wrap_iterIPK6PlayerEC1B8ue170006IPS1_EERKNS0_IT_EEPNS_9enable_ifIXsr14is_convertibleIS7_S3_EE5valueEvE4typeE, symObjAddr: 0x2F18, symBinAddr: 0x1000052CC, symSize: 0x3C }
  - { offsetInCU: 0x19A42, offset: 0x19A42, size: 0x8, addend: 0x0, symName: __ZNSt3__16vectorI6PlayerNS_9allocatorIS1_EEED1B8ue170006Ev, symObjAddr: 0x2F54, symBinAddr: 0x100005308, symSize: 0x2C }
  - { offsetInCU: 0x19A6C, offset: 0x19A6C, size: 0x8, addend: 0x0, symName: __ZN4Game12triggerEventEi6Player, symObjAddr: 0x2F80, symBinAddr: 0x100005334, symSize: 0x4DC }
  - { offsetInCU: 0x19B1C, offset: 0x19B1C, size: 0x8, addend: 0x0, symName: __ZN4Game11riddleTilesEi, symObjAddr: 0x34BC, symBinAddr: 0x100005870, symSize: 0x284 }
  - { offsetInCU: 0x19BA2, offset: 0x19BA2, size: 0x8, addend: 0x0, symName: __ZN4Game7endgameEi, symObjAddr: 0x3740, symBinAddr: 0x100005AF4, symSize: 0x4A8 }
  - { offsetInCU: 0x19C1C, offset: 0x19C1C, size: 0x8, addend: 0x0, symName: __ZN4Game14greenTileEventEi, symObjAddr: 0x3BE8, symBinAddr: 0x100005F9C, symSize: 0x5B4 }
  - { offsetInCU: 0x19D10, offset: 0x19D10, size: 0x8, addend: 0x0, symName: __ZN4Game9startGameEv, symObjAddr: 0x419C, symBinAddr: 0x100006550, symSize: 0x494 }
  - { offsetInCU: 0x19D5E, offset: 0x19D5E, size: 0x8, addend: 0x0, symName: __ZNSt3__112basic_stringIcNS_11char_traitsIcEENS_9allocatorIcEEEC1B8ue170006ILi0EEEPKc, symObjAddr: 0x4630, symBinAddr: 0x1000069E4, symSize: 0x34 }
  - { offsetInCU: 0x19D9D, offset: 0x19D9D, size: 0x8, addend: 0x0, symName: __ZN4Game8takeTurnEi, symObjAddr: 0x4664, symBinAddr: 0x100006A18, symSize: 0x8B4 }
  - { offsetInCU: 0x19E2D, offset: 0x19E2D, size: 0x8, addend: 0x0, symName: __ZN6PlayerC1ERKS_, symObjAddr: 0x4F60, symBinAddr: 0x100007314, symSize: 0x34 }
  - { offsetInCU: 0x19E62, offset: 0x19E62, size: 0x8, addend: 0x0, symName: __ZNSt3__112basic_stringIcNS_11char_traitsIcEENS_9allocatorIcEEEaSB8ue170006EPKc, symObjAddr: 0x4F94, symBinAddr: 0x100007348, symSize: 0x2C }
  - { offsetInCU: 0x19E97, offset: 0x19E97, size: 0x8, addend: 0x0, symName: __ZNSt3__16vectorI5EventNS_9allocatorIS1_EEEC1B8ue170006Ev, symObjAddr: 0x4FC0, symBinAddr: 0x100007374, symSize: 0x2C }
  - { offsetInCU: 0x19EC1, offset: 0x19EC1, size: 0x8, addend: 0x0, symName: __ZNSt3__16vectorI5EventNS_9allocatorIS1_EEE9push_backB8ue170006ERKS1_, symObjAddr: 0x4FEC, symBinAddr: 0x1000073A0, symSize: 0x6C }
  - { offsetInCU: 0x19EF8, offset: 0x19EF8, size: 0x8, addend: 0x0, symName: __ZNKSt3__16vectorI5EventNS_9allocatorIS1_EEE5emptyB8ue170006Ev, symObjAddr: 0x5058, symBinAddr: 0x10000740C, symSize: 0x28 }
  - { offsetInCU: 0x19F1E, offset: 0x19F1E, size: 0x8, addend: 0x0, symName: __ZNKSt3__16vectorI5EventNS_9allocatorIS1_EEE4sizeB8ue170006Ev, symObjAddr: 0x5080, symBinAddr: 0x100007434, symSize: 0x28 }
  - { offsetInCU: 0x19F44, offset: 0x19F44, size: 0x8, addend: 0x0, symName: __ZNSt3__16vectorI5EventNS_9allocatorIS1_EEEixB8ue170006Em, symObjAddr: 0x50A8, symBinAddr: 0x10000745C, symSize: 0x2C }
  - { offsetInCU: 0x19F7B, offset: 0x19F7B, size: 0x8, addend: 0x0, symName: __ZN5EventC1ERKS_, symObjAddr: 0x50D4, symBinAddr: 0x100007488, symSize: 0x34 }
  - { offsetInCU: 0x19FB0, offset: 0x19FB0, size: 0x8, addend: 0x0, symName: __ZNSt3__16vectorI5EventNS_9allocatorIS1_EEED1B8ue170006Ev, symObjAddr: 0x5108, symBinAddr: 0x1000074BC, symSize: 0x2C }
  - { offsetInCU: 0x19FE4, offset: 0x19FE4, size: 0x8, addend: 0x0, symName: __ZN7RiddlesC1ERKS_, symObjAddr: 0x5134, symBinAddr: 0x1000074E8, symSize: 0x34 }
  - { offsetInCU: 0x1A019, offset: 0x1A019, size: 0x8, addend: 0x0, symName: __ZN6PlayerD2Ev, symObjAddr: 0x55B8, symBinAddr: 0x10000796C, symSize: 0x38 }
  - { offsetInCU: 0x1A045, offset: 0x1A045, size: 0x8, addend: 0x0, symName: __ZN7AdvisorD2Ev, symObjAddr: 0x55F0, symBinAddr: 0x1000079A4, symSize: 0x3C }
  - { offsetInCU: 0x1A071, offset: 0x1A071, size: 0x8, addend: 0x0, symName: __ZN5EventD2Ev, symObjAddr: 0x562C, symBinAddr: 0x1000079E0, symSize: 0x2C }
  - { offsetInCU: 0x1A09D, offset: 0x1A09D, size: 0x8, addend: 0x0, symName: __ZN7RiddlesD2Ev, symObjAddr: 0x5658, symBinAddr: 0x100007A0C, symSize: 0x38 }
  - { offsetInCU: 0x1A0C9, offset: 0x1A0C9, size: 0x8, addend: 0x0, symName: __ZNSt3__112basic_stringIcNS_11char_traitsIcEENS_9allocatorIcEEEaSB8ue170006EOS5_, symObjAddr: 0x5690, symBinAddr: 0x100007A44, symSize: 0x34 }
  - { offsetInCU: 0x1A0FE, offset: 0x1A0FE, size: 0x8, addend: 0x0, symName: __ZNSt3__112basic_stringIcNS_11char_traitsIcEENS_9allocatorIcEEE13__move_assignB8ue170006ERS5_NS_17integral_constantIbLb1EEE, symObjAddr: 0x56C4, symBinAddr: 0x100007A78, symSize: 0xC8 }
  - { offsetInCU: 0x1A141, offset: 0x1A141, size: 0x8, addend: 0x0, symName: __ZNKSt3__112basic_stringIcNS_11char_traitsIcEENS_9allocatorIcEEE9__is_longB8ue170006Ev, symObjAddr: 0x578C, symBinAddr: 0x100007B40, symSize: 0x38 }
  - { offsetInCU: 0x1A167, offset: 0x1A167, size: 0x8, addend: 0x0, symName: __ZNSt3__116allocator_traitsINS_9allocatorIcEEE10deallocateB8ue170006ERS2_Pcm, symObjAddr: 0x57C4, symBinAddr: 0x100007B78, symSize: 0x34 }
  - { offsetInCU: 0x1A1A9, offset: 0x1A1A9, size: 0x8, addend: 0x0, symName: __ZNSt3__112basic_stringIcNS_11char_traitsIcEENS_9allocatorIcEEE7__allocB8ue170006Ev, symObjAddr: 0x57F8, symBinAddr: 0x100007BAC, symSize: 0x24 }
  - { offsetInCU: 0x1A1CF, offset: 0x1A1CF, size: 0x8, addend: 0x0, symName: __ZNSt3__112basic_stringIcNS_11char_traitsIcEENS_9allocatorIcEEE18__get_long_pointerB8ue170006Ev, symObjAddr: 0x581C, symBinAddr: 0x100007BD0, symSize: 0x28 }
  - { offsetInCU: 0x1A1F5, offset: 0x1A1F5, size: 0x8, addend: 0x0, symName: __ZNKSt3__112basic_stringIcNS_11char_traitsIcEENS_9allocatorIcEEE14__get_long_capB8ue170006Ev, symObjAddr: 0x5844, symBinAddr: 0x100007BF8, symSize: 0x30 }
  - { offsetInCU: 0x1A21B, offset: 0x1A21B, size: 0x8, addend: 0x0, symName: __ZNSt3__112basic_stringIcNS_11char_traitsIcEENS_9allocatorIcEEE19__move_assign_allocB8ue170006ERS5_, symObjAddr: 0x5874, symBinAddr: 0x100007C28, symSize: 0x2C }
  - { offsetInCU: 0x1A250, offset: 0x1A250, size: 0x8, addend: 0x0, symName: __ZNSt3__117__compressed_pairINS_12basic_stringIcNS_11char_traitsIcEENS_9allocatorIcEEE5__repES5_E5firstB8ue170006Ev, symObjAddr: 0x58A0, symBinAddr: 0x100007C54, symSize: 0x24 }
  - { offsetInCU: 0x1A276, offset: 0x1A276, size: 0x8, addend: 0x0, symName: __ZNSt3__112basic_stringIcNS_11char_traitsIcEENS_9allocatorIcEEE16__set_short_sizeB8ue170006Em, symObjAddr: 0x58C4, symBinAddr: 0x100007C78, symSize: 0x78 }
  - { offsetInCU: 0x1A2AB, offset: 0x1A2AB, size: 0x8, addend: 0x0, symName: __ZNSt3__111char_traitsIcE6assignB8ue170006ERcRKc, symObjAddr: 0x593C, symBinAddr: 0x100007CF0, symSize: 0x24 }
  - { offsetInCU: 0x1A2DC, offset: 0x1A2DC, size: 0x8, addend: 0x0, symName: __ZNSt3__112basic_stringIcNS_11char_traitsIcEENS_9allocatorIcEEE19__get_short_pointerB8ue170006Ev, symObjAddr: 0x5960, symBinAddr: 0x100007D14, symSize: 0x28 }
  - { offsetInCU: 0x1A302, offset: 0x1A302, size: 0x8, addend: 0x0, symName: __ZNKSt3__117__compressed_pairINS_12basic_stringIcNS_11char_traitsIcEENS_9allocatorIcEEE5__repES5_E5firstB8ue170006Ev, symObjAddr: 0x5988, symBinAddr: 0x100007D3C, symSize: 0x24 }
  - { offsetInCU: 0x1A328, offset: 0x1A328, size: 0x8, addend: 0x0, symName: __ZNKSt3__122__compressed_pair_elemINS_12basic_stringIcNS_11char_traitsIcEENS_9allocatorIcEEE5__repELi0ELb0EE5__getB8ue170006Ev, symObjAddr: 0x59AC, symBinAddr: 0x100007D60, symSize: 0x14 }
  - { offsetInCU: 0x1A34E, offset: 0x1A34E, size: 0x8, addend: 0x0, symName: __ZNSt3__19allocatorIcE10deallocateB8ue170006EPcm, symObjAddr: 0x59C0, symBinAddr: 0x100007D74, symSize: 0x40 }
  - { offsetInCU: 0x1A390, offset: 0x1A390, size: 0x8, addend: 0x0, symName: __ZNSt3__117__compressed_pairINS_12basic_stringIcNS_11char_traitsIcEENS_9allocatorIcEEE5__repES5_E6secondB8ue170006Ev, symObjAddr: 0x5B34, symBinAddr: 0x100007EE8, symSize: 0x24 }
  - { offsetInCU: 0x1A3B6, offset: 0x1A3B6, size: 0x8, addend: 0x0, symName: __ZNSt3__122__compressed_pair_elemINS_9allocatorIcEELi1ELb1EE5__getB8ue170006Ev, symObjAddr: 0x5B58, symBinAddr: 0x100007F0C, symSize: 0x14 }
  - { offsetInCU: 0x1A3DC, offset: 0x1A3DC, size: 0x8, addend: 0x0, symName: __ZNSt3__112basic_stringIcNS_11char_traitsIcEENS_9allocatorIcEEE19__move_assign_allocB8ue170006ERS5_NS_17integral_constantIbLb1EEE, symObjAddr: 0x5B6C, symBinAddr: 0x100007F20, symSize: 0x38 }
  - { offsetInCU: 0x1A41D, offset: 0x1A41D, size: 0x8, addend: 0x0, symName: __ZNSt3__122__compressed_pair_elemINS_12basic_stringIcNS_11char_traitsIcEENS_9allocatorIcEEE5__repELi0ELb0EE5__getB8ue170006Ev, symObjAddr: 0x5BA4, symBinAddr: 0x100007F58, symSize: 0x14 }
  - { offsetInCU: 0x1A443, offset: 0x1A443, size: 0x8, addend: 0x0, symName: __ZNSt3__114pointer_traitsIPcE10pointer_toB8ue170006ERc, symObjAddr: 0x5BB8, symBinAddr: 0x100007F6C, symSize: 0x14 }
  - { offsetInCU: 0x1A466, offset: 0x1A466, size: 0x8, addend: 0x0, symName: __ZNSt3__118basic_stringstreamIcNS_11char_traitsIcEENS_9allocatorIcEEED2Ev, symObjAddr: 0x5BCC, symBinAddr: 0x100007F80, symSize: 0x6C }
  - { offsetInCU: 0x1A4A0, offset: 0x1A4A0, size: 0x8, addend: 0x0, symName: __ZThn16_NSt3__118basic_stringstreamIcNS_11char_traitsIcEENS_9allocatorIcEEED1Ev, symObjAddr: 0x5C38, symBinAddr: 0x100007FEC, symSize: 0x1C }
  - { offsetInCU: 0x1A4B7, offset: 0x1A4B7, size: 0x8, addend: 0x0, symName: __ZTv0_n24_NSt3__118basic_stringstreamIcNS_11char_traitsIcEENS_9allocatorIcEEED1Ev, symObjAddr: 0x5C54, symBinAddr: 0x100008008, symSize: 0x28 }
  - { offsetInCU: 0x1A4D3, offset: 0x1A4D3, size: 0x8, addend: 0x0, symName: __ZNSt3__115basic_stringbufIcNS_11char_traitsIcEENS_9allocatorIcEEED1Ev, symObjAddr: 0x5C7C, symBinAddr: 0x100008030, symSize: 0x2C }
  - { offsetInCU: 0x1A500, offset: 0x1A500, size: 0x8, addend: 0x0, symName: __ZNSt3__115basic_stringbufIcNS_11char_traitsIcEENS_9allocatorIcEEED2Ev, symObjAddr: 0x5CA8, symBinAddr: 0x10000805C, symSize: 0x48 }
  - { offsetInCU: 0x1A52D, offset: 0x1A52D, size: 0x8, addend: 0x0, symName: __ZNSt3__114basic_ifstreamIcNS_11char_traitsIcEEED2Ev, symObjAddr: 0x5CF0, symBinAddr: 0x1000080A4, symSize: 0x64 }
  - { offsetInCU: 0x1A567, offset: 0x1A567, size: 0x8, addend: 0x0, symName: __ZTv0_n24_NSt3__114basic_ifstreamIcNS_11char_traitsIcEEED1Ev, symObjAddr: 0x5D54, symBinAddr: 0x100008108, symSize: 0x28 }
  - { offsetInCU: 0x1A57E, offset: 0x1A57E, size: 0x8, addend: 0x0, symName: __ZN7AdvisorC2ERKS_, symObjAddr: 0x5D7C, symBinAddr: 0x100008130, symSize: 0x98 }
  - { offsetInCU: 0x1A5B3, offset: 0x1A5B3, size: 0x8, addend: 0x0, symName: __ZN7AdvisoraSERKS_, symObjAddr: 0x5E14, symBinAddr: 0x1000081C8, symSize: 0x6C }
  - { offsetInCU: 0x1A5E4, offset: 0x1A5E4, size: 0x8, addend: 0x0, symName: __ZNSt3__111__wrap_iterIP6PlayerEpLB8ue170006El, symObjAddr: 0x5E80, symBinAddr: 0x100008234, symSize: 0x30 }
  - { offsetInCU: 0x1A618, offset: 0x1A618, size: 0x8, addend: 0x0, symName: __ZNSt3__111__wrap_iterIPK6PlayerEC2B8ue170006IPS1_EERKNS0_IT_EEPNS_9enable_ifIXsr14is_convertibleIS7_S3_EE5valueEvE4typeE, symObjAddr: 0x5EB0, symBinAddr: 0x100008264, symSize: 0x40 }
  - { offsetInCU: 0x1A664, offset: 0x1A664, size: 0x8, addend: 0x0, symName: __ZNKSt3__111__wrap_iterIP6PlayerE4baseB8ue170006Ev, symObjAddr: 0x5EF0, symBinAddr: 0x1000082A4, symSize: 0x18 }
  - { offsetInCU: 0x1A68A, offset: 0x1A68A, size: 0x8, addend: 0x0, symName: __ZN6PlayerC2ERKS_, symObjAddr: 0x5F08, symBinAddr: 0x1000082BC, symSize: 0x90 }
  - { offsetInCU: 0x1A6BF, offset: 0x1A6BF, size: 0x8, addend: 0x0, symName: __ZN5EventC2ERKS_, symObjAddr: 0x5F98, symBinAddr: 0x10000834C, symSize: 0x48 }
  - { offsetInCU: 0x1A6F4, offset: 0x1A6F4, size: 0x8, addend: 0x0, symName: __ZN7RiddlesC2ERKS_, symObjAddr: 0x5FE0, symBinAddr: 0x100008394, symSize: 0x70 }
  - { offsetInCU: 0x1A729, offset: 0x1A729, size: 0x8, addend: 0x0, symName: __ZNSt3__112basic_stringIcNS_11char_traitsIcEENS_9allocatorIcEEEC2B8ue170006Ev, symObjAddr: 0x6050, symBinAddr: 0x100008404, symSize: 0x48 }
  - { offsetInCU: 0x1A758, offset: 0x1A758, size: 0x8, addend: 0x0, symName: __ZNSt3__117__compressed_pairINS_12basic_stringIcNS_11char_traitsIcEENS_9allocatorIcEEE5__repES5_EC1B8ue170006INS_18__default_init_tagESA_EEOT_OT0_, symObjAddr: 0x6098, symBinAddr: 0x10000844C, symSize: 0x3C }
  - { offsetInCU: 0x1A7B0, offset: 0x1A7B0, size: 0x8, addend: 0x0, symName: __ZNSt3__112basic_stringIcNS_11char_traitsIcEENS_9allocatorIcEEE14__default_initB8ue170006Ev, symObjAddr: 0x60D4, symBinAddr: 0x100008488, symSize: 0x40 }
  - { offsetInCU: 0x1A7D6, offset: 0x1A7D6, size: 0x8, addend: 0x0, symName: __ZNSt3__117__compressed_pairINS_12basic_stringIcNS_11char_traitsIcEENS_9allocatorIcEEE5__repES5_EC2B8ue170006INS_18__default_init_tagESA_EEOT_OT0_, symObjAddr: 0x6114, symBinAddr: 0x1000084C8, symSize: 0x3C }
  - { offsetInCU: 0x1A82E, offset: 0x1A82E, size: 0x8, addend: 0x0, symName: __ZNSt3__122__compressed_pair_elemINS_12basic_stringIcNS_11char_traitsIcEENS_9allocatorIcEEE5__repELi0ELb0EEC2B8ue170006ENS_18__default_init_tagE, symObjAddr: 0x6150, symBinAddr: 0x100008504, symSize: 0x14 }
  - { offsetInCU: 0x1A863, offset: 0x1A863, size: 0x8, addend: 0x0, symName: __ZNSt3__122__compressed_pair_elemINS_9allocatorIcEELi1ELb1EEC2B8ue170006ENS_18__default_init_tagE, symObjAddr: 0x6164, symBinAddr: 0x100008518, symSize: 0x2C }
  - { offsetInCU: 0x1A898, offset: 0x1A898, size: 0x8, addend: 0x0, symName: __ZNSt3__19allocatorIcEC2B8ue170006Ev, symObjAddr: 0x6190, symBinAddr: 0x100008544, symSize: 0x2C }
  - { offsetInCU: 0x1A8C2, offset: 0x1A8C2, size: 0x8, addend: 0x0, symName: __ZNSt3__116__non_trivial_ifILb1ENS_9allocatorIcEEEC2B8ue170006Ev, symObjAddr: 0x61BC, symBinAddr: 0x100008570, symSize: 0x14 }
  - { offsetInCU: 0x1A8EC, offset: 0x1A8EC, size: 0x8, addend: 0x0, symName: __ZNSt3__19basic_iosIcNS_11char_traitsIcEEEC2B8ue170006Ev, symObjAddr: 0x61D0, symBinAddr: 0x100008584, symSize: 0x44 }
  - { offsetInCU: 0x1A916, offset: 0x1A916, size: 0x8, addend: 0x0, symName: __ZNSt3__113basic_istreamIcNS_11char_traitsIcEEEC2B8ue170006EPNS_15basic_streambufIcS2_EE, symObjAddr: 0x6214, symBinAddr: 0x1000085C8, symSize: 0x64 }
  - { offsetInCU: 0x1A95B, offset: 0x1A95B, size: 0x8, addend: 0x0, symName: __ZNSt3__113basic_filebufIcNS_11char_traitsIcEEE4openERKNS_12basic_stringIcS2_NS_9allocatorIcEEEEj, symObjAddr: 0x6278, symBinAddr: 0x10000862C, symSize: 0x44 }
  - { offsetInCU: 0x1A99F, offset: 0x1A99F, size: 0x8, addend: 0x0, symName: __ZNSt3__19basic_iosIcNS_11char_traitsIcEEE8setstateB8ue170006Ej, symObjAddr: 0x62BC, symBinAddr: 0x100008670, symSize: 0x2C }
  - { offsetInCU: 0x1A9D4, offset: 0x1A9D4, size: 0x8, addend: 0x0, symName: __ZNSt3__18ios_baseC2B8ue170006Ev, symObjAddr: 0x62E8, symBinAddr: 0x10000869C, symSize: 0x24 }
  - { offsetInCU: 0x1A9FE, offset: 0x1A9FE, size: 0x8, addend: 0x0, symName: __ZNSt3__19basic_iosIcNS_11char_traitsIcEEE4initB8ue170006EPNS_15basic_streambufIcS2_EE, symObjAddr: 0x630C, symBinAddr: 0x1000086C0, symSize: 0x44 }
  - { offsetInCU: 0x1AA35, offset: 0x1AA35, size: 0x8, addend: 0x0, symName: __ZNSt3__111char_traitsIcE3eofB8ue170006Ev, symObjAddr: 0x6350, symBinAddr: 0x100008704, symSize: 0x8 }
  - { offsetInCU: 0x1AA49, offset: 0x1AA49, size: 0x8, addend: 0x0, symName: __ZNKSt3__112basic_stringIcNS_11char_traitsIcEENS_9allocatorIcEEE5c_strB8ue170006Ev, symObjAddr: 0x6358, symBinAddr: 0x10000870C, symSize: 0x24 }
  - { offsetInCU: 0x1AA6F, offset: 0x1AA6F, size: 0x8, addend: 0x0, symName: __ZNKSt3__112basic_stringIcNS_11char_traitsIcEENS_9allocatorIcEEE4dataB8ue170006Ev, symObjAddr: 0x637C, symBinAddr: 0x100008730, symSize: 0x28 }
  - { offsetInCU: 0x1AA95, offset: 0x1AA95, size: 0x8, addend: 0x0, symName: __ZNKSt3__112basic_stringIcNS_11char_traitsIcEENS_9allocatorIcEEE13__get_pointerB8ue170006Ev, symObjAddr: 0x63B8, symBinAddr: 0x10000876C, symSize: 0x54 }
  - { offsetInCU: 0x1AABB, offset: 0x1AABB, size: 0x8, addend: 0x0, symName: __ZNKSt3__112basic_stringIcNS_11char_traitsIcEENS_9allocatorIcEEE18__get_long_pointerB8ue170006Ev, symObjAddr: 0x640C, symBinAddr: 0x1000087C0, symSize: 0x28 }
  - { offsetInCU: 0x1AAE1, offset: 0x1AAE1, size: 0x8, addend: 0x0, symName: __ZNKSt3__112basic_stringIcNS_11char_traitsIcEENS_9allocatorIcEEE19__get_short_pointerB8ue170006Ev, symObjAddr: 0x6434, symBinAddr: 0x1000087E8, symSize: 0x28 }
  - { offsetInCU: 0x1AB07, offset: 0x1AB07, size: 0x8, addend: 0x0, symName: __ZNSt3__114pointer_traitsIPKcE10pointer_toB8ue170006ERS1_, symObjAddr: 0x645C, symBinAddr: 0x100008810, symSize: 0x14 }
  - { offsetInCU: 0x1AB2A, offset: 0x1AB2A, size: 0x8, addend: 0x0, symName: __ZNSt3__18ios_base8setstateB8ue170006Ej, symObjAddr: 0x6470, symBinAddr: 0x100008824, symSize: 0x34 }
  - { offsetInCU: 0x1AB61, offset: 0x1AB61, size: 0x8, addend: 0x0, symName: __ZNKSt3__113basic_filebufIcNS_11char_traitsIcEEE7is_openEv, symObjAddr: 0x64A4, symBinAddr: 0x100008858, symSize: 0x24 }
  - { offsetInCU: 0x1AB89, offset: 0x1AB89, size: 0x8, addend: 0x0, symName: __ZNSt3__111char_traitsIcE6lengthB8ue170006EPKc, symObjAddr: 0x66B4, symBinAddr: 0x100008A68, symSize: 0x34 }
  - { offsetInCU: 0x1ABCA, offset: 0x1ABCA, size: 0x8, addend: 0x0, symName: __ZNKSt3__113basic_ostreamIcNS_11char_traitsIcEEE6sentrycvbB8ue170006Ev, symObjAddr: 0x66E8, symBinAddr: 0x100008A9C, symSize: 0x1C }
  - { offsetInCU: 0x1ABF0, offset: 0x1ABF0, size: 0x8, addend: 0x0, symName: __ZNSt3__119ostreambuf_iteratorIcNS_11char_traitsIcEEEC1B8ue170006ERNS_13basic_ostreamIcS2_EE, symObjAddr: 0x6944, symBinAddr: 0x100008CF8, symSize: 0x34 }
  - { offsetInCU: 0x1AC28, offset: 0x1AC28, size: 0x8, addend: 0x0, symName: __ZNKSt3__18ios_base5flagsB8ue170006Ev, symObjAddr: 0x6978, symBinAddr: 0x100008D2C, symSize: 0x18 }
  - { offsetInCU: 0x1AC50, offset: 0x1AC50, size: 0x8, addend: 0x0, symName: __ZNKSt3__19basic_iosIcNS_11char_traitsIcEEE4fillB8ue170006Ev, symObjAddr: 0x6990, symBinAddr: 0x100008D44, symSize: 0x64 }
  - { offsetInCU: 0x1AC78, offset: 0x1AC78, size: 0x8, addend: 0x0, symName: __ZNKSt3__119ostreambuf_iteratorIcNS_11char_traitsIcEEE6failedB8ue170006Ev, symObjAddr: 0x69F4, symBinAddr: 0x100008DA8, symSize: 0x24 }
  - { offsetInCU: 0x1AC9E, offset: 0x1AC9E, size: 0x8, addend: 0x0, symName: __ZNKSt3__18ios_base5widthB8ue170006Ev, symObjAddr: 0x6A18, symBinAddr: 0x100008DCC, symSize: 0x18 }
  - { offsetInCU: 0x1ACC6, offset: 0x1ACC6, size: 0x8, addend: 0x0, symName: __ZNSt3__115basic_streambufIcNS_11char_traitsIcEEE5sputnB8ue170006EPKcl, symObjAddr: 0x6A30, symBinAddr: 0x100008DE4, symSize: 0x3C }
  - { offsetInCU: 0x1AD08, offset: 0x1AD08, size: 0x8, addend: 0x0, symName: __ZNSt3__112basic_stringIcNS_11char_traitsIcEENS_9allocatorIcEEEC1B8ue170006Emc, symObjAddr: 0x6A6C, symBinAddr: 0x100008E20, symSize: 0x3C }
  - { offsetInCU: 0x1AD50, offset: 0x1AD50, size: 0x8, addend: 0x0, symName: __ZNSt3__112basic_stringIcNS_11char_traitsIcEENS_9allocatorIcEEE4dataB8ue170006Ev, symObjAddr: 0x6AA8, symBinAddr: 0x100008E5C, symSize: 0x28 }
  - { offsetInCU: 0x1AD76, offset: 0x1AD76, size: 0x8, addend: 0x0, symName: __ZNSt3__18ios_base5widthB8ue170006El, symObjAddr: 0x6AD0, symBinAddr: 0x100008E84, symSize: 0x2C }
  - { offsetInCU: 0x1ADBC, offset: 0x1ADBC, size: 0x8, addend: 0x0, symName: __ZNSt3__112basic_stringIcNS_11char_traitsIcEENS_9allocatorIcEEEC2B8ue170006Emc, symObjAddr: 0x6AFC, symBinAddr: 0x100008EB0, symSize: 0x4C }
  - { offsetInCU: 0x1AE04, offset: 0x1AE04, size: 0x8, addend: 0x0, symName: __ZNSt3__112basic_stringIcNS_11char_traitsIcEENS_9allocatorIcEEE13__get_pointerB8ue170006Ev, symObjAddr: 0x6B5C, symBinAddr: 0x100008F10, symSize: 0x54 }
  - { offsetInCU: 0x1AE2A, offset: 0x1AE2A, size: 0x8, addend: 0x0, symName: __ZNSt3__119ostreambuf_iteratorIcNS_11char_traitsIcEEEC2B8ue170006ERNS_13basic_ostreamIcS2_EE, symObjAddr: 0x6BB0, symBinAddr: 0x100008F64, symSize: 0x54 }
  - { offsetInCU: 0x1AE62, offset: 0x1AE62, size: 0x8, addend: 0x0, symName: __ZNKSt3__19basic_iosIcNS_11char_traitsIcEEE5rdbufB8ue170006Ev, symObjAddr: 0x6C04, symBinAddr: 0x100008FB8, symSize: 0x24 }
  - { offsetInCU: 0x1AE8A, offset: 0x1AE8A, size: 0x8, addend: 0x0, symName: __ZNKSt3__18ios_base5rdbufB8ue170006Ev, symObjAddr: 0x6C28, symBinAddr: 0x100008FDC, symSize: 0x18 }
  - { offsetInCU: 0x1AEB0, offset: 0x1AEB0, size: 0x8, addend: 0x0, symName: __ZNSt3__111char_traitsIcE11eq_int_typeB8ue170006Eii, symObjAddr: 0x6C40, symBinAddr: 0x100008FF4, symSize: 0x28 }
  - { offsetInCU: 0x1AEE3, offset: 0x1AEE3, size: 0x8, addend: 0x0, symName: __ZNKSt3__19basic_iosIcNS_11char_traitsIcEEE5widenB8ue170006Ec, symObjAddr: 0x6C68, symBinAddr: 0x10000901C, symSize: 0x84 }
  - { offsetInCU: 0x1AF47, offset: 0x1AF47, size: 0x8, addend: 0x0, symName: __ZNKSt3__15ctypeIcE5widenB8ue170006Ec, symObjAddr: 0x6D18, symBinAddr: 0x1000090CC, symSize: 0x38 }
  - { offsetInCU: 0x1AF7C, offset: 0x1AF7C, size: 0x8, addend: 0x0, symName: __ZNKSt3__19basic_iosIcNS_11char_traitsIcEEE4failB8ue170006Ev, symObjAddr: 0x6D74, symBinAddr: 0x100009128, symSize: 0x28 }
  - { offsetInCU: 0x1AFA2, offset: 0x1AFA2, size: 0x8, addend: 0x0, symName: __ZNKSt3__18ios_base4failB8ue170006Ev, symObjAddr: 0x6D9C, symBinAddr: 0x100009150, symSize: 0x28 }
  - { offsetInCU: 0x1AFCA, offset: 0x1AFCA, size: 0x8, addend: 0x0, symName: __ZNSt3__16vectorINS_12basic_stringIcNS_11char_traitsIcEENS_9allocatorIcEEEENS4_IS6_EEEC2B8ue170006Ev, symObjAddr: 0x6DC4, symBinAddr: 0x100009178, symSize: 0x4C }
  - { offsetInCU: 0x1AFF9, offset: 0x1AFF9, size: 0x8, addend: 0x0, symName: __ZNSt3__117__compressed_pairIPNS_12basic_stringIcNS_11char_traitsIcEENS_9allocatorIcEEEENS4_IS6_EEEC1B8ue170006IDnNS_18__default_init_tagEEEOT_OT0_, symObjAddr: 0x6E10, symBinAddr: 0x1000091C4, symSize: 0x3C }
  - { offsetInCU: 0x1B051, offset: 0x1B051, size: 0x8, addend: 0x0, symName: __ZNSt3__117__compressed_pairIPNS_12basic_stringIcNS_11char_traitsIcEENS_9allocatorIcEEEENS4_IS6_EEEC2B8ue170006IDnNS_18__default_init_tagEEEOT_OT0_, symObjAddr: 0x6E4C, symBinAddr: 0x100009200, symSize: 0x40 }
  - { offsetInCU: 0x1B0A9, offset: 0x1B0A9, size: 0x8, addend: 0x0, symName: __ZNSt3__122__compressed_pair_elemIPNS_12basic_stringIcNS_11char_traitsIcEENS_9allocatorIcEEEELi0ELb0EEC2B8ue170006IDnvEEOT_, symObjAddr: 0x6E8C, symBinAddr: 0x100009240, symSize: 0x1C }
  - { offsetInCU: 0x1B0EB, offset: 0x1B0EB, size: 0x8, addend: 0x0, symName: __ZNSt3__122__compressed_pair_elemINS_9allocatorINS_12basic_stringIcNS_11char_traitsIcEENS1_IcEEEEEELi1ELb1EEC2B8ue170006ENS_18__default_init_tagE, symObjAddr: 0x6EA8, symBinAddr: 0x10000925C, symSize: 0x2C }
  - { offsetInCU: 0x1B120, offset: 0x1B120, size: 0x8, addend: 0x0, symName: __ZNSt3__19allocatorINS_12basic_stringIcNS_11char_traitsIcEENS0_IcEEEEEC2B8ue170006Ev, symObjAddr: 0x6ED4, symBinAddr: 0x100009288, symSize: 0x2C }
  - { offsetInCU: 0x1B14A, offset: 0x1B14A, size: 0x8, addend: 0x0, symName: __ZNSt3__116__non_trivial_ifILb1ENS_9allocatorINS_12basic_stringIcNS_11char_traitsIcEENS1_IcEEEEEEEC2B8ue170006Ev, symObjAddr: 0x6F00, symBinAddr: 0x1000092B4, symSize: 0x14 }
  - { offsetInCU: 0x1B174, offset: 0x1B174, size: 0x8, addend: 0x0, symName: __ZNSt3__16vectorINS_12basic_stringIcNS_11char_traitsIcEENS_9allocatorIcEEEENS4_IS6_EEED2B8ue170006Ev, symObjAddr: 0x6F14, symBinAddr: 0x1000092C8, symSize: 0x44 }
  - { offsetInCU: 0x1B19E, offset: 0x1B19E, size: 0x8, addend: 0x0, symName: __ZNSt3__16vectorINS_12basic_stringIcNS_11char_traitsIcEENS_9allocatorIcEEEENS4_IS6_EEE16__destroy_vectorC1B8ue170006ERS8_, symObjAddr: 0x6F58, symBinAddr: 0x10000930C, symSize: 0x34 }
  - { offsetInCU: 0x1B1D7, offset: 0x1B1D7, size: 0x8, addend: 0x0, symName: __ZNSt3__16vectorINS_12basic_stringIcNS_11char_traitsIcEENS_9allocatorIcEEEENS4_IS6_EEE16__destroy_vectorclB8ue170006Ev, symObjAddr: 0x6F8C, symBinAddr: 0x100009340, symSize: 0x90 }
  - { offsetInCU: 0x1B1FD, offset: 0x1B1FD, size: 0x8, addend: 0x0, symName: __ZNSt3__16vectorINS_12basic_stringIcNS_11char_traitsIcEENS_9allocatorIcEEEENS4_IS6_EEE16__destroy_vectorC2B8ue170006ERS8_, symObjAddr: 0x701C, symBinAddr: 0x1000093D0, symSize: 0x20 }
  - { offsetInCU: 0x1B236, offset: 0x1B236, size: 0x8, addend: 0x0, symName: __ZNSt3__16vectorINS_12basic_stringIcNS_11char_traitsIcEENS_9allocatorIcEEEENS4_IS6_EEE7__clearB8ue170006Ev, symObjAddr: 0x703C, symBinAddr: 0x1000093F0, symSize: 0x28 }
  - { offsetInCU: 0x1B25C, offset: 0x1B25C, size: 0x8, addend: 0x0, symName: __ZNKSt3__16vectorINS_12basic_stringIcNS_11char_traitsIcEENS_9allocatorIcEEEENS4_IS6_EEE17__annotate_deleteB8ue170006Ev, symObjAddr: 0x7064, symBinAddr: 0x100009418, symSize: 0xD4 }
  - { offsetInCU: 0x1B282, offset: 0x1B282, size: 0x8, addend: 0x0, symName: __ZNSt3__116allocator_traitsINS_9allocatorINS_12basic_stringIcNS_11char_traitsIcEENS1_IcEEEEEEE10deallocateB8ue170006ERS7_PS6_m, symObjAddr: 0x7138, symBinAddr: 0x1000094EC, symSize: 0x34 }
  - { offsetInCU: 0x1B2C4, offset: 0x1B2C4, size: 0x8, addend: 0x0, symName: __ZNSt3__16vectorINS_12basic_stringIcNS_11char_traitsIcEENS_9allocatorIcEEEENS4_IS6_EEE7__allocB8ue170006Ev, symObjAddr: 0x716C, symBinAddr: 0x100009520, symSize: 0x28 }
  - { offsetInCU: 0x1B2EA, offset: 0x1B2EA, size: 0x8, addend: 0x0, symName: __ZNKSt3__16vectorINS_12basic_stringIcNS_11char_traitsIcEENS_9allocatorIcEEEENS4_IS6_EEE8capacityB8ue170006Ev, symObjAddr: 0x7194, symBinAddr: 0x100009548, symSize: 0x40 }
  - { offsetInCU: 0x1B310, offset: 0x1B310, size: 0x8, addend: 0x0, symName: __ZNSt3__16vectorINS_12basic_stringIcNS_11char_traitsIcEENS_9allocatorIcEEEENS4_IS6_EEE22__base_destruct_at_endB8ue170006EPS6_, symObjAddr: 0x71D4, symBinAddr: 0x100009588, symSize: 0x8C }
  - { offsetInCU: 0x1B354, offset: 0x1B354, size: 0x8, addend: 0x0, symName: __ZNSt3__116allocator_traitsINS_9allocatorINS_12basic_stringIcNS_11char_traitsIcEENS1_IcEEEEEEE7destroyB8ue170006IS6_vEEvRS7_PT_, symObjAddr: 0x7260, symBinAddr: 0x100009614, symSize: 0x2C }
  - { offsetInCU: 0x1B391, offset: 0x1B391, size: 0x8, addend: 0x0, symName: __ZNSt3__19allocatorINS_12basic_stringIcNS_11char_traitsIcEENS0_IcEEEEE7destroyB8ue170006EPS5_, symObjAddr: 0x72A0, symBinAddr: 0x100009654, symSize: 0x28 }
  - { offsetInCU: 0x1B3C5, offset: 0x1B3C5, size: 0x8, addend: 0x0, symName: __ZNKSt3__16vectorINS_12basic_stringIcNS_11char_traitsIcEENS_9allocatorIcEEEENS4_IS6_EEE31__annotate_contiguous_containerB8ue170006EPKvSA_SA_SA_, symObjAddr: 0x72C8, symBinAddr: 0x10000967C, symSize: 0x20 }
  - { offsetInCU: 0x1B41B, offset: 0x1B41B, size: 0x8, addend: 0x0, symName: __ZNKSt3__16vectorINS_12basic_stringIcNS_11char_traitsIcEENS_9allocatorIcEEEENS4_IS6_EEE4dataB8ue170006Ev, symObjAddr: 0x72E8, symBinAddr: 0x10000969C, symSize: 0x28 }
  - { offsetInCU: 0x1B441, offset: 0x1B441, size: 0x8, addend: 0x0, symName: __ZNSt3__19allocatorINS_12basic_stringIcNS_11char_traitsIcEENS0_IcEEEEE10deallocateB8ue170006EPS5_m, symObjAddr: 0x7310, symBinAddr: 0x1000096C4, symSize: 0x44 }
  - { offsetInCU: 0x1B483, offset: 0x1B483, size: 0x8, addend: 0x0, symName: __ZNSt3__117__compressed_pairIPNS_12basic_stringIcNS_11char_traitsIcEENS_9allocatorIcEEEENS4_IS6_EEE6secondB8ue170006Ev, symObjAddr: 0x7354, symBinAddr: 0x100009708, symSize: 0x24 }
  - { offsetInCU: 0x1B4A9, offset: 0x1B4A9, size: 0x8, addend: 0x0, symName: __ZNSt3__122__compressed_pair_elemINS_9allocatorINS_12basic_stringIcNS_11char_traitsIcEENS1_IcEEEEEELi1ELb1EE5__getB8ue170006Ev, symObjAddr: 0x7378, symBinAddr: 0x10000972C, symSize: 0x14 }
  - { offsetInCU: 0x1B4CF, offset: 0x1B4CF, size: 0x8, addend: 0x0, symName: __ZNKSt3__16vectorINS_12basic_stringIcNS_11char_traitsIcEENS_9allocatorIcEEEENS4_IS6_EEE9__end_capB8ue170006Ev, symObjAddr: 0x738C, symBinAddr: 0x100009740, symSize: 0x28 }
  - { offsetInCU: 0x1B4F5, offset: 0x1B4F5, size: 0x8, addend: 0x0, symName: __ZNKSt3__117__compressed_pairIPNS_12basic_stringIcNS_11char_traitsIcEENS_9allocatorIcEEEENS4_IS6_EEE5firstB8ue170006Ev, symObjAddr: 0x73B4, symBinAddr: 0x100009768, symSize: 0x24 }
  - { offsetInCU: 0x1B51B, offset: 0x1B51B, size: 0x8, addend: 0x0, symName: __ZNKSt3__122__compressed_pair_elemIPNS_12basic_stringIcNS_11char_traitsIcEENS_9allocatorIcEEEELi0ELb0EE5__getB8ue170006Ev, symObjAddr: 0x73D8, symBinAddr: 0x10000978C, symSize: 0x14 }
  - { offsetInCU: 0x1B541, offset: 0x1B541, size: 0x8, addend: 0x0, symName: __ZNSt3__114basic_iostreamIcNS_11char_traitsIcEEEC2B8ue170006EPNS_15basic_streambufIcS2_EE, symObjAddr: 0x73EC, symBinAddr: 0x1000097A0, symSize: 0xAC }
  - { offsetInCU: 0x1B587, offset: 0x1B587, size: 0x8, addend: 0x0, symName: __ZNSt3__115basic_stringbufIcNS_11char_traitsIcEENS_9allocatorIcEEEC1B8ue170006ERKNS_12basic_stringIcS2_S4_EEj, symObjAddr: 0x7498, symBinAddr: 0x10000984C, symSize: 0x3C }
  - { offsetInCU: 0x1B5CF, offset: 0x1B5CF, size: 0x8, addend: 0x0, symName: __ZNSt3__113basic_ostreamIcNS_11char_traitsIcEEEC2B8ue170006Ev, symObjAddr: 0x74D4, symBinAddr: 0x100009888, symSize: 0x34 }
  - { offsetInCU: 0x1B606, offset: 0x1B606, size: 0x8, addend: 0x0, symName: __ZNSt3__115basic_stringbufIcNS_11char_traitsIcEENS_9allocatorIcEEEC2B8ue170006ERKNS_12basic_stringIcS2_S4_EEj, symObjAddr: 0x7508, symBinAddr: 0x1000098BC, symSize: 0xB4 }
  - { offsetInCU: 0x1B64E, offset: 0x1B64E, size: 0x8, addend: 0x0, symName: __ZNKSt3__112basic_stringIcNS_11char_traitsIcEENS_9allocatorIcEEE13get_allocatorB8ue170006Ev, symObjAddr: 0x75BC, symBinAddr: 0x100009970, symSize: 0x24 }
  - { offsetInCU: 0x1B674, offset: 0x1B674, size: 0x8, addend: 0x0, symName: __ZNSt3__112basic_stringIcNS_11char_traitsIcEENS_9allocatorIcEEEC1B8ue170006ERKS4_, symObjAddr: 0x75E0, symBinAddr: 0x100009994, symSize: 0x34 }
  - { offsetInCU: 0x1B6AD, offset: 0x1B6AD, size: 0x8, addend: 0x0, symName: __ZNKSt3__112basic_stringIcNS_11char_traitsIcEENS_9allocatorIcEEE7__allocB8ue170006Ev, symObjAddr: 0x7614, symBinAddr: 0x1000099C8, symSize: 0x24 }
  - { offsetInCU: 0x1B6D3, offset: 0x1B6D3, size: 0x8, addend: 0x0, symName: __ZNKSt3__117__compressed_pairINS_12basic_stringIcNS_11char_traitsIcEENS_9allocatorIcEEE5__repES5_E6secondB8ue170006Ev, symObjAddr: 0x7638, symBinAddr: 0x1000099EC, symSize: 0x24 }
  - { offsetInCU: 0x1B6F9, offset: 0x1B6F9, size: 0x8, addend: 0x0, symName: __ZNKSt3__122__compressed_pair_elemINS_9allocatorIcEELi1ELb1EE5__getB8ue170006Ev, symObjAddr: 0x765C, symBinAddr: 0x100009A10, symSize: 0x14 }
  - { offsetInCU: 0x1B71F, offset: 0x1B71F, size: 0x8, addend: 0x0, symName: __ZNSt3__112basic_stringIcNS_11char_traitsIcEENS_9allocatorIcEEEC2B8ue170006ERKS4_, symObjAddr: 0x7670, symBinAddr: 0x100009A24, symSize: 0x48 }
  - { offsetInCU: 0x1B758, offset: 0x1B758, size: 0x8, addend: 0x0, symName: __ZNSt3__117__compressed_pairINS_12basic_stringIcNS_11char_traitsIcEENS_9allocatorIcEEE5__repES5_EC1B8ue170006INS_18__default_init_tagERKS5_EEOT_OT0_, symObjAddr: 0x76B8, symBinAddr: 0x100009A6C, symSize: 0x3C }
  - { offsetInCU: 0x1B7B0, offset: 0x1B7B0, size: 0x8, addend: 0x0, symName: __ZNSt3__117__compressed_pairINS_12basic_stringIcNS_11char_traitsIcEENS_9allocatorIcEEE5__repES5_EC2B8ue170006INS_18__default_init_tagERKS5_EEOT_OT0_, symObjAddr: 0x76F4, symBinAddr: 0x100009AA8, symSize: 0x40 }
  - { offsetInCU: 0x1B808, offset: 0x1B808, size: 0x8, addend: 0x0, symName: __ZNSt3__122__compressed_pair_elemINS_9allocatorIcEELi1ELb1EEC2B8ue170006IRKS2_vEEOT_, symObjAddr: 0x7734, symBinAddr: 0x100009AE8, symSize: 0x18 }
  - { offsetInCU: 0x1B868, offset: 0x1B868, size: 0x8, addend: 0x0, symName: __ZNKSt3__113basic_istreamIcNS_11char_traitsIcEEE6sentrycvbB8ue170006Ev, symObjAddr: 0x774C, symBinAddr: 0x100009B00, symSize: 0x1C }
  - { offsetInCU: 0x1B88E, offset: 0x1B88E, size: 0x8, addend: 0x0, symName: __ZNSt3__112basic_stringIcNS_11char_traitsIcEENS_9allocatorIcEEE5clearB8ue170006Ev, symObjAddr: 0x7768, symBinAddr: 0x100009B1C, symSize: 0x78 }
  - { offsetInCU: 0x1B8B6, offset: 0x1B8B6, size: 0x8, addend: 0x0, symName: __ZNSt3__115basic_streambufIcNS_11char_traitsIcEEE6sbumpcB8ue170006Ev, symObjAddr: 0x77E0, symBinAddr: 0x100009B94, symSize: 0x78 }
  - { offsetInCU: 0x1B8DC, offset: 0x1B8DC, size: 0x8, addend: 0x0, symName: __ZNSt3__111char_traitsIcE12to_char_typeB8ue170006Ei, symObjAddr: 0x7858, symBinAddr: 0x100009C0C, symSize: 0x18 }
  - { offsetInCU: 0x1B8FF, offset: 0x1B8FF, size: 0x8, addend: 0x0, symName: __ZNSt3__111char_traitsIcE2eqEcc, symObjAddr: 0x7870, symBinAddr: 0x100009C24, symSize: 0x28 }
  - { offsetInCU: 0x1B930, offset: 0x1B930, size: 0x8, addend: 0x0, symName: __ZNKSt3__112basic_stringIcNS_11char_traitsIcEENS_9allocatorIcEEE4sizeB8ue170006Ev, symObjAddr: 0x7898, symBinAddr: 0x100009C4C, symSize: 0x54 }
  - { offsetInCU: 0x1B956, offset: 0x1B956, size: 0x8, addend: 0x0, symName: __ZNKSt3__112basic_stringIcNS_11char_traitsIcEENS_9allocatorIcEEE8max_sizeB8ue170006Ev, symObjAddr: 0x78EC, symBinAddr: 0x100009CA0, symSize: 0xAC }
  - { offsetInCU: 0x1B9A8, offset: 0x1B9A8, size: 0x8, addend: 0x0, symName: __ZNSt3__18ios_base18__setstate_nothrowB8ue170006Ej, symObjAddr: 0x7998, symBinAddr: 0x100009D4C, symSize: 0x64 }
  - { offsetInCU: 0x1B9DD, offset: 0x1B9DD, size: 0x8, addend: 0x0, symName: __ZNKSt3__19basic_iosIcNS_11char_traitsIcEEE10exceptionsB8ue170006Ev, symObjAddr: 0x79FC, symBinAddr: 0x100009DB0, symSize: 0x24 }
  - { offsetInCU: 0x1BA03, offset: 0x1BA03, size: 0x8, addend: 0x0, symName: __ZNSt3__112basic_stringIcNS_11char_traitsIcEENS_9allocatorIcEEE15__set_long_sizeB8ue170006Em, symObjAddr: 0x7A20, symBinAddr: 0x100009DD4, symSize: 0x38 }
  - { offsetInCU: 0x1BA38, offset: 0x1BA38, size: 0x8, addend: 0x0, symName: __ZNSt3__111char_traitsIcE11to_int_typeB8ue170006Ec, symObjAddr: 0x7A58, symBinAddr: 0x100009E0C, symSize: 0x14 }
  - { offsetInCU: 0x1BA5C, offset: 0x1BA5C, size: 0x8, addend: 0x0, symName: __ZNKSt3__112basic_stringIcNS_11char_traitsIcEENS_9allocatorIcEEE15__get_long_sizeB8ue170006Ev, symObjAddr: 0x7A6C, symBinAddr: 0x100009E20, symSize: 0x28 }
  - { offsetInCU: 0x1BA82, offset: 0x1BA82, size: 0x8, addend: 0x0, symName: __ZNKSt3__112basic_stringIcNS_11char_traitsIcEENS_9allocatorIcEEE16__get_short_sizeB8ue170006Ev, symObjAddr: 0x7A94, symBinAddr: 0x100009E48, symSize: 0x34 }
  - { offsetInCU: 0x1BAB2, offset: 0x1BAB2, size: 0x8, addend: 0x0, symName: __ZNSt3__116allocator_traitsINS_9allocatorIcEEE8max_sizeB8ue170006IS2_vEEmRKS2_, symObjAddr: 0x7AC8, symBinAddr: 0x100009E7C, symSize: 0x24 }
  - { offsetInCU: 0x1BAE0, offset: 0x1BAE0, size: 0x8, addend: 0x0, symName: __ZNSt3__114numeric_limitsImE3maxB8ue170006Ev, symObjAddr: 0x7AEC, symBinAddr: 0x100009EA0, symSize: 0x14 }
  - { offsetInCU: 0x1BAF4, offset: 0x1BAF4, size: 0x8, addend: 0x0, symName: __ZNKSt3__19allocatorIcE8max_sizeB8ue170006Ev, symObjAddr: 0x7B00, symBinAddr: 0x100009EB4, symSize: 0x14 }
  - { offsetInCU: 0x1BB1A, offset: 0x1BB1A, size: 0x8, addend: 0x0, symName: __ZNSt3__123__libcpp_numeric_limitsImLb1EE3maxB8ue170006Ev, symObjAddr: 0x7B14, symBinAddr: 0x100009EC8, symSize: 0x8 }
  - { offsetInCU: 0x1BB2E, offset: 0x1BB2E, size: 0x8, addend: 0x0, symName: __ZNKSt3__18ios_base10exceptionsB8ue170006Ev, symObjAddr: 0x7B1C, symBinAddr: 0x100009ED0, symSize: 0x18 }
  - { offsetInCU: 0x1BB56, offset: 0x1BB56, size: 0x8, addend: 0x0, symName: __ZNSt3__16vectorINS_12basic_stringIcNS_11char_traitsIcEENS_9allocatorIcEEEENS4_IS6_EEE9__end_capB8ue170006Ev, symObjAddr: 0x7B34, symBinAddr: 0x100009EE8, symSize: 0x28 }
  - { offsetInCU: 0x1BB7C, offset: 0x1BB7C, size: 0x8, addend: 0x0, symName: __ZNSt3__16vectorINS_12basic_stringIcNS_11char_traitsIcEENS_9allocatorIcEEEENS4_IS6_EEE22__construct_one_at_endB8ue170006IJRKS6_EEEvDpOT_, symObjAddr: 0x7B5C, symBinAddr: 0x100009F10, symSize: 0x90 }
  - { offsetInCU: 0x1BBCB, offset: 0x1BBCB, size: 0x8, addend: 0x0, symName: __ZNSt3__16vectorINS_12basic_stringIcNS_11char_traitsIcEENS_9allocatorIcEEEENS4_IS6_EEE21__push_back_slow_pathIRKS6_EEvOT_, symObjAddr: 0x7BEC, symBinAddr: 0x100009FA0, symSize: 0xD8 }
  - { offsetInCU: 0x1BC29, offset: 0x1BC29, size: 0x8, addend: 0x0, symName: __ZNSt3__117__compressed_pairIPNS_12basic_stringIcNS_11char_traitsIcEENS_9allocatorIcEEEENS4_IS6_EEE5firstB8ue170006Ev, symObjAddr: 0x7CC4, symBinAddr: 0x10000A078, symSize: 0x24 }
  - { offsetInCU: 0x1BC4F, offset: 0x1BC4F, size: 0x8, addend: 0x0, symName: __ZNSt3__122__compressed_pair_elemIPNS_12basic_stringIcNS_11char_traitsIcEENS_9allocatorIcEEEELi0ELb0EE5__getB8ue170006Ev, symObjAddr: 0x7CE8, symBinAddr: 0x10000A09C, symSize: 0x14 }
  - { offsetInCU: 0x1BC8E, offset: 0x1BC8E, size: 0x8, addend: 0x0, symName: __ZNSt3__16vectorINS_12basic_stringIcNS_11char_traitsIcEENS_9allocatorIcEEEENS4_IS6_EEE21_ConstructTransactionC1B8ue170006ERS8_m, symObjAddr: 0x7CFC, symBinAddr: 0x10000A0B0, symSize: 0x3C }
  - { offsetInCU: 0x1BCD6, offset: 0x1BCD6, size: 0x8, addend: 0x0, symName: __ZNSt3__116allocator_traitsINS_9allocatorINS_12basic_stringIcNS_11char_traitsIcEENS1_IcEEEEEEE9constructB8ue170006IS6_JRKS6_EvEEvRS7_PT_DpOT0_, symObjAddr: 0x7D38, symBinAddr: 0x10000A0EC, symSize: 0x34 }
  - { offsetInCU: 0x1BD2D, offset: 0x1BD2D, size: 0x8, addend: 0x0, symName: __ZNSt3__16vectorINS_12basic_stringIcNS_11char_traitsIcEENS_9allocatorIcEEEENS4_IS6_EEE21_ConstructTransactionD1B8ue170006Ev, symObjAddr: 0x7D6C, symBinAddr: 0x10000A120, symSize: 0x2C }
  - { offsetInCU: 0x1BD57, offset: 0x1BD57, size: 0x8, addend: 0x0, symName: __ZNSt3__16vectorINS_12basic_stringIcNS_11char_traitsIcEENS_9allocatorIcEEEENS4_IS6_EEE21_ConstructTransactionC2B8ue170006ERS8_m, symObjAddr: 0x7D98, symBinAddr: 0x10000A14C, symSize: 0x4C }
  - { offsetInCU: 0x1BD9F, offset: 0x1BD9F, size: 0x8, addend: 0x0, symName: __ZNSt3__19allocatorINS_12basic_stringIcNS_11char_traitsIcEENS0_IcEEEEE9constructB8ue170006IS5_JRKS5_EEEvPT_DpOT0_, symObjAddr: 0x7DE4, symBinAddr: 0x10000A198, symSize: 0x30 }
  - { offsetInCU: 0x1BDF5, offset: 0x1BDF5, size: 0x8, addend: 0x0, symName: __ZNSt3__16vectorINS_12basic_stringIcNS_11char_traitsIcEENS_9allocatorIcEEEENS4_IS6_EEE21_ConstructTransactionD2B8ue170006Ev, symObjAddr: 0x7E14, symBinAddr: 0x10000A1C8, symSize: 0x20 }
  - { offsetInCU: 0x1BE1F, offset: 0x1BE1F, size: 0x8, addend: 0x0, symName: __ZNKSt3__16vectorINS_12basic_stringIcNS_11char_traitsIcEENS_9allocatorIcEEEENS4_IS6_EEE11__recommendB8ue170006Em, symObjAddr: 0x7E34, symBinAddr: 0x10000A1E8, symSize: 0xB4 }
  - { offsetInCU: 0x1BE74, offset: 0x1BE74, size: 0x8, addend: 0x0, symName: __ZNSt3__114__split_bufferINS_12basic_stringIcNS_11char_traitsIcEENS_9allocatorIcEEEERNS4_IS6_EEEC1EmmS8_, symObjAddr: 0x7EE8, symBinAddr: 0x10000A29C, symSize: 0x44 }
  - { offsetInCU: 0x1BECA, offset: 0x1BECA, size: 0x8, addend: 0x0, symName: __ZNSt3__114__split_bufferINS_12basic_stringIcNS_11char_traitsIcEENS_9allocatorIcEEEERNS4_IS6_EEED1Ev, symObjAddr: 0x803C, symBinAddr: 0x10000A3F0, symSize: 0x2C }
  - { offsetInCU: 0x1BEF6, offset: 0x1BEF6, size: 0x8, addend: 0x0, symName: __ZNKSt3__16vectorINS_12basic_stringIcNS_11char_traitsIcEENS_9allocatorIcEEEENS4_IS6_EEE8max_sizeEv, symObjAddr: 0x8068, symBinAddr: 0x10000A41C, symSize: 0x60 }
  - { offsetInCU: 0x1BF1E, offset: 0x1BF1E, size: 0x8, addend: 0x0, symName: __ZNKSt3__16vectorINS_12basic_stringIcNS_11char_traitsIcEENS_9allocatorIcEEEENS4_IS6_EEE20__throw_length_errorB8ue170006Ev, symObjAddr: 0x80C8, symBinAddr: 0x10000A47C, symSize: 0x1C }
  - { offsetInCU: 0x1BF4E, offset: 0x1BF4E, size: 0x8, addend: 0x0, symName: __ZNSt3__116allocator_traitsINS_9allocatorINS_12basic_stringIcNS_11char_traitsIcEENS1_IcEEEEEEE8max_sizeB8ue170006IS7_vEEmRKS7_, symObjAddr: 0x813C, symBinAddr: 0x10000A4F0, symSize: 0x24 }
  - { offsetInCU: 0x1BF7C, offset: 0x1BF7C, size: 0x8, addend: 0x0, symName: __ZNKSt3__16vectorINS_12basic_stringIcNS_11char_traitsIcEENS_9allocatorIcEEEENS4_IS6_EEE7__allocB8ue170006Ev, symObjAddr: 0x8160, symBinAddr: 0x10000A514, symSize: 0x28 }
  - { offsetInCU: 0x1BFA2, offset: 0x1BFA2, size: 0x8, addend: 0x0, symName: __ZNSt3__114numeric_limitsIlE3maxB8ue170006Ev, symObjAddr: 0x8188, symBinAddr: 0x10000A53C, symSize: 0x14 }
  - { offsetInCU: 0x1BFCA, offset: 0x1BFCA, size: 0x8, addend: 0x0, symName: __ZNKSt3__16__lessIvvEclB8ue170006ImmEEbRKT_RKT0_, symObjAddr: 0x81F0, symBinAddr: 0x10000A5A4, symSize: 0x34 }
  - { offsetInCU: 0x1C01E, offset: 0x1C01E, size: 0x8, addend: 0x0, symName: __ZNKSt3__19allocatorINS_12basic_stringIcNS_11char_traitsIcEENS0_IcEEEEE8max_sizeB8ue170006Ev, symObjAddr: 0x8224, symBinAddr: 0x10000A5D8, symSize: 0x18 }
  - { offsetInCU: 0x1C044, offset: 0x1C044, size: 0x8, addend: 0x0, symName: __ZNKSt3__117__compressed_pairIPNS_12basic_stringIcNS_11char_traitsIcEENS_9allocatorIcEEEENS4_IS6_EEE6secondB8ue170006Ev, symObjAddr: 0x823C, symBinAddr: 0x10000A5F0, symSize: 0x24 }
  - { offsetInCU: 0x1C06A, offset: 0x1C06A, size: 0x8, addend: 0x0, symName: __ZNKSt3__122__compressed_pair_elemINS_9allocatorINS_12basic_stringIcNS_11char_traitsIcEENS1_IcEEEEEELi1ELb1EE5__getB8ue170006Ev, symObjAddr: 0x8260, symBinAddr: 0x10000A614, symSize: 0x14 }
  - { offsetInCU: 0x1C090, offset: 0x1C090, size: 0x8, addend: 0x0, symName: __ZNSt3__123__libcpp_numeric_limitsIlLb1EE3maxB8ue170006Ev, symObjAddr: 0x8274, symBinAddr: 0x10000A628, symSize: 0x8 }
  - { offsetInCU: 0x1C0A4, offset: 0x1C0A4, size: 0x8, addend: 0x0, symName: __ZNSt12length_errorC1B8ue170006EPKc, symObjAddr: 0x82E0, symBinAddr: 0x10000A694, symSize: 0x34 }
  - { offsetInCU: 0x1C0DC, offset: 0x1C0DC, size: 0x8, addend: 0x0, symName: __ZNSt12length_errorC2B8ue170006EPKc, symObjAddr: 0x8314, symBinAddr: 0x10000A6C8, symSize: 0x4C }
  - { offsetInCU: 0x1C114, offset: 0x1C114, size: 0x8, addend: 0x0, symName: __ZNSt3__114__split_bufferINS_12basic_stringIcNS_11char_traitsIcEENS_9allocatorIcEEEERNS4_IS6_EEEC2EmmS8_, symObjAddr: 0x83B4, symBinAddr: 0x10000A768, symSize: 0xE0 }
  - { offsetInCU: 0x1C187, offset: 0x1C187, size: 0x8, addend: 0x0, symName: __ZNSt3__117__compressed_pairIPNS_12basic_stringIcNS_11char_traitsIcEENS_9allocatorIcEEEERNS4_IS6_EEEC1B8ue170006IDnS9_EEOT_OT0_, symObjAddr: 0x8494, symBinAddr: 0x10000A848, symSize: 0x3C }
  - { offsetInCU: 0x1C1DF, offset: 0x1C1DF, size: 0x8, addend: 0x0, symName: __ZNSt3__114__split_bufferINS_12basic_stringIcNS_11char_traitsIcEENS_9allocatorIcEEEERNS4_IS6_EEE7__allocB8ue170006Ev, symObjAddr: 0x8510, symBinAddr: 0x10000A8C4, symSize: 0x28 }
  - { offsetInCU: 0x1C205, offset: 0x1C205, size: 0x8, addend: 0x0, symName: __ZNSt3__114__split_bufferINS_12basic_stringIcNS_11char_traitsIcEENS_9allocatorIcEEEERNS4_IS6_EEE9__end_capB8ue170006Ev, symObjAddr: 0x8538, symBinAddr: 0x10000A8EC, symSize: 0x28 }
  - { offsetInCU: 0x1C22B, offset: 0x1C22B, size: 0x8, addend: 0x0, symName: __ZNSt3__117__compressed_pairIPNS_12basic_stringIcNS_11char_traitsIcEENS_9allocatorIcEEEERNS4_IS6_EEEC2B8ue170006IDnS9_EEOT_OT0_, symObjAddr: 0x8560, symBinAddr: 0x10000A914, symSize: 0x48 }
  - { offsetInCU: 0x1C283, offset: 0x1C283, size: 0x8, addend: 0x0, symName: __ZNSt3__122__compressed_pair_elemIRNS_9allocatorINS_12basic_stringIcNS_11char_traitsIcEENS1_IcEEEEEELi1ELb0EEC2B8ue170006IS8_vEEOT_, symObjAddr: 0x85A8, symBinAddr: 0x10000A95C, symSize: 0x20 }
  - { offsetInCU: 0x1C2C5, offset: 0x1C2C5, size: 0x8, addend: 0x0, symName: __ZNSt3__19allocatorINS_12basic_stringIcNS_11char_traitsIcEENS0_IcEEEEE8allocateB8ue170006Em, symObjAddr: 0x85C8, symBinAddr: 0x10000A97C, symSize: 0x5C }
  - { offsetInCU: 0x1C2F9, offset: 0x1C2F9, size: 0x8, addend: 0x0, symName: __ZNSt3__117__compressed_pairIPNS_12basic_stringIcNS_11char_traitsIcEENS_9allocatorIcEEEERNS4_IS6_EEE6secondB8ue170006Ev, symObjAddr: 0x8708, symBinAddr: 0x10000AABC, symSize: 0x28 }
  - { offsetInCU: 0x1C31F, offset: 0x1C31F, size: 0x8, addend: 0x0, symName: __ZNSt3__122__compressed_pair_elemIRNS_9allocatorINS_12basic_stringIcNS_11char_traitsIcEENS1_IcEEEEEELi1ELb0EE5__getB8ue170006Ev, symObjAddr: 0x8730, symBinAddr: 0x10000AAE4, symSize: 0x18 }
  - { offsetInCU: 0x1C345, offset: 0x1C345, size: 0x8, addend: 0x0, symName: __ZNSt3__117__compressed_pairIPNS_12basic_stringIcNS_11char_traitsIcEENS_9allocatorIcEEEERNS4_IS6_EEE5firstB8ue170006Ev, symObjAddr: 0x8748, symBinAddr: 0x10000AAFC, symSize: 0x24 }
  - { offsetInCU: 0x1C36B, offset: 0x1C36B, size: 0x8, addend: 0x0, symName: __ZNSt3__116reverse_iteratorIPNS_12basic_stringIcNS_11char_traitsIcEENS_9allocatorIcEEEEEC1B8ue170006ES7_, symObjAddr: 0x8898, symBinAddr: 0x10000AC4C, symSize: 0x34 }
  - { offsetInCU: 0x1C3A3, offset: 0x1C3A3, size: 0x8, addend: 0x0, symName: __ZNKSt3__116reverse_iteratorIPNS_12basic_stringIcNS_11char_traitsIcEENS_9allocatorIcEEEEE4baseB8ue170006Ev, symObjAddr: 0x88CC, symBinAddr: 0x10000AC80, symSize: 0x18 }
  - { offsetInCU: 0x1C3C9, offset: 0x1C3C9, size: 0x8, addend: 0x0, symName: __ZNKSt3__16vectorINS_12basic_stringIcNS_11char_traitsIcEENS_9allocatorIcEEEENS4_IS6_EEE14__annotate_newB8ue170006Em, symObjAddr: 0x8920, symBinAddr: 0x10000ACD4, symSize: 0xC8 }
  - { offsetInCU: 0x1C3FE, offset: 0x1C3FE, size: 0x8, addend: 0x0, symName: __ZNSt3__129_AllocatorDestroyRangeReverseINS_9allocatorINS_12basic_stringIcNS_11char_traitsIcEENS1_IcEEEEEENS_16reverse_iteratorIPS6_EEEC1B8ue170006ERS7_RSA_SD_, symObjAddr: 0x8A34, symBinAddr: 0x10000ADE8, symSize: 0x44 }
  - { offsetInCU: 0x1C45A, offset: 0x1C45A, size: 0x8, addend: 0x0, symName: __ZNSt3__116allocator_traitsINS_9allocatorINS_12basic_stringIcNS_11char_traitsIcEENS1_IcEEEEEEE9constructB8ue170006IS6_JS6_EvEEvRS7_PT_DpOT0_, symObjAddr: 0x8AC0, symBinAddr: 0x10000AE74, symSize: 0x34 }
  - { offsetInCU: 0x1C4B1, offset: 0x1C4B1, size: 0x8, addend: 0x0, symName: __ZNKSt3__116reverse_iteratorIPNS_12basic_stringIcNS_11char_traitsIcEENS_9allocatorIcEEEEEdeB8ue170006Ev, symObjAddr: 0x8B18, symBinAddr: 0x10000AECC, symSize: 0x28 }
  - { offsetInCU: 0x1C4E5, offset: 0x1C4E5, size: 0x8, addend: 0x0, symName: __ZNSt3__116reverse_iteratorIPNS_12basic_stringIcNS_11char_traitsIcEENS_9allocatorIcEEEEEppB8ue170006Ev, symObjAddr: 0x8B40, symBinAddr: 0x10000AEF4, symSize: 0x20 }
  - { offsetInCU: 0x1C50B, offset: 0x1C50B, size: 0x8, addend: 0x0, symName: __ZNSt3__128__exception_guard_exceptionsINS_29_AllocatorDestroyRangeReverseINS_9allocatorINS_12basic_stringIcNS_11char_traitsIcEENS2_IcEEEEEENS_16reverse_iteratorIPS7_EEEEE10__completeB8ue170006Ev, symObjAddr: 0x8B60, symBinAddr: 0x10000AF14, symSize: 0x1C }
  - { offsetInCU: 0x1C531, offset: 0x1C531, size: 0x8, addend: 0x0, symName: __ZNSt3__128__exception_guard_exceptionsINS_29_AllocatorDestroyRangeReverseINS_9allocatorINS_12basic_stringIcNS_11char_traitsIcEENS2_IcEEEEEENS_16reverse_iteratorIPS7_EEEEED1B8ue170006Ev, symObjAddr: 0x8B7C, symBinAddr: 0x10000AF30, symSize: 0x2C }
  - { offsetInCU: 0x1C55B, offset: 0x1C55B, size: 0x8, addend: 0x0, symName: __ZNSt3__128__exception_guard_exceptionsINS_29_AllocatorDestroyRangeReverseINS_9allocatorINS_12basic_stringIcNS_11char_traitsIcEENS2_IcEEEEEENS_16reverse_iteratorIPS7_EEEEEC1B8ue170006ESC_, symObjAddr: 0x8BA8, symBinAddr: 0x10000AF5C, symSize: 0x34 }
  - { offsetInCU: 0x1C594, offset: 0x1C594, size: 0x8, addend: 0x0, symName: __ZNSt3__128__exception_guard_exceptionsINS_29_AllocatorDestroyRangeReverseINS_9allocatorINS_12basic_stringIcNS_11char_traitsIcEENS2_IcEEEEEENS_16reverse_iteratorIPS7_EEEEEC2B8ue170006ESC_, symObjAddr: 0x8BDC, symBinAddr: 0x10000AF90, symSize: 0x30 }
  - { offsetInCU: 0x1C5CD, offset: 0x1C5CD, size: 0x8, addend: 0x0, symName: __ZNSt3__129_AllocatorDestroyRangeReverseINS_9allocatorINS_12basic_stringIcNS_11char_traitsIcEENS1_IcEEEEEENS_16reverse_iteratorIPS6_EEEC2B8ue170006ERS7_RSA_SD_, symObjAddr: 0x8C0C, symBinAddr: 0x10000AFC0, symSize: 0x38 }
  - { offsetInCU: 0x1C624, offset: 0x1C624, size: 0x8, addend: 0x0, symName: __ZNSt3__19allocatorINS_12basic_stringIcNS_11char_traitsIcEENS0_IcEEEEE9constructB8ue170006IS5_JS5_EEEvPT_DpOT0_, symObjAddr: 0x8C44, symBinAddr: 0x10000AFF8, symSize: 0x30 }
  - { offsetInCU: 0x1C67A, offset: 0x1C67A, size: 0x8, addend: 0x0, symName: __ZNSt3__112basic_stringIcNS_11char_traitsIcEENS_9allocatorIcEEEC1B8ue170006EOS5_, symObjAddr: 0x8C74, symBinAddr: 0x10000B028, symSize: 0x34 }
  - { offsetInCU: 0x1C6B3, offset: 0x1C6B3, size: 0x8, addend: 0x0, symName: __ZNSt3__112basic_stringIcNS_11char_traitsIcEENS_9allocatorIcEEEC2B8ue170006EOS5_, symObjAddr: 0x8CA8, symBinAddr: 0x10000B05C, symSize: 0x48 }
  - { offsetInCU: 0x1C6F1, offset: 0x1C6F1, size: 0x8, addend: 0x0, symName: __ZNSt3__119__to_address_helperINS_16reverse_iteratorIPNS_12basic_stringIcNS_11char_traitsIcEENS_9allocatorIcEEEEEEvE6__callB8ue170006ERKS9_, symObjAddr: 0x8CF0, symBinAddr: 0x10000B0A4, symSize: 0x38 }
  - { offsetInCU: 0x1C714, offset: 0x1C714, size: 0x8, addend: 0x0, symName: __ZNKSt3__116reverse_iteratorIPNS_12basic_stringIcNS_11char_traitsIcEENS_9allocatorIcEEEEEptB8ue170006Ev, symObjAddr: 0x8D28, symBinAddr: 0x10000B0DC, symSize: 0x24 }
  - { offsetInCU: 0x1C73A, offset: 0x1C73A, size: 0x8, addend: 0x0, symName: __ZNSt3__128__exception_guard_exceptionsINS_29_AllocatorDestroyRangeReverseINS_9allocatorINS_12basic_stringIcNS_11char_traitsIcEENS2_IcEEEEEENS_16reverse_iteratorIPS7_EEEEED2B8ue170006Ev, symObjAddr: 0x8D4C, symBinAddr: 0x10000B100, symSize: 0x50 }
  - { offsetInCU: 0x1C764, offset: 0x1C764, size: 0x8, addend: 0x0, symName: __ZNKSt3__129_AllocatorDestroyRangeReverseINS_9allocatorINS_12basic_stringIcNS_11char_traitsIcEENS1_IcEEEEEENS_16reverse_iteratorIPS6_EEEclB8ue170006Ev, symObjAddr: 0x8D9C, symBinAddr: 0x10000B150, symSize: 0xB4 }
  - { offsetInCU: 0x1C78B, offset: 0x1C78B, size: 0x8, addend: 0x0, symName: __ZNSt3__116reverse_iteratorINS0_IPNS_12basic_stringIcNS_11char_traitsIcEENS_9allocatorIcEEEEEEEC1B8ue170006ES8_, symObjAddr: 0x8EC0, symBinAddr: 0x10000B274, symSize: 0x3C }
  - { offsetInCU: 0x1C7C3, offset: 0x1C7C3, size: 0x8, addend: 0x0, symName: __ZNSt3__116reverse_iteratorINS0_IPNS_12basic_stringIcNS_11char_traitsIcEENS_9allocatorIcEEEEEEEppB8ue170006Ev, symObjAddr: 0x8F80, symBinAddr: 0x10000B334, symSize: 0x30 }
  - { offsetInCU: 0x1C7E9, offset: 0x1C7E9, size: 0x8, addend: 0x0, symName: __ZNKSt3__116reverse_iteratorINS0_IPNS_12basic_stringIcNS_11char_traitsIcEENS_9allocatorIcEEEEEEE4baseB8ue170006Ev, symObjAddr: 0x8FB0, symBinAddr: 0x10000B364, symSize: 0x24 }
  - { offsetInCU: 0x1C814, offset: 0x1C814, size: 0x8, addend: 0x0, symName: __ZNSt3__119__to_address_helperINS_16reverse_iteratorINS1_IPNS_12basic_stringIcNS_11char_traitsIcEENS_9allocatorIcEEEEEEEEvE6__callB8ue170006ERKSA_, symObjAddr: 0x8FD4, symBinAddr: 0x10000B388, symSize: 0x38 }
  - { offsetInCU: 0x1C837, offset: 0x1C837, size: 0x8, addend: 0x0, symName: __ZNKSt3__116reverse_iteratorINS0_IPNS_12basic_stringIcNS_11char_traitsIcEENS_9allocatorIcEEEEEEEptB8ue170006Ev, symObjAddr: 0x900C, symBinAddr: 0x10000B3C0, symSize: 0x24 }
  - { offsetInCU: 0x1C85D, offset: 0x1C85D, size: 0x8, addend: 0x0, symName: __ZNKSt3__116reverse_iteratorINS0_IPNS_12basic_stringIcNS_11char_traitsIcEENS_9allocatorIcEEEEEEEdeB8ue170006Ev, symObjAddr: 0x9030, symBinAddr: 0x10000B3E4, symSize: 0x34 }
  - { offsetInCU: 0x1C891, offset: 0x1C891, size: 0x8, addend: 0x0, symName: __ZNSt3__116reverse_iteratorIPNS_12basic_stringIcNS_11char_traitsIcEENS_9allocatorIcEEEEEmmB8ue170006Ev, symObjAddr: 0x9064, symBinAddr: 0x10000B418, symSize: 0x20 }
  - { offsetInCU: 0x1C8B7, offset: 0x1C8B7, size: 0x8, addend: 0x0, symName: __ZNSt3__116reverse_iteratorINS0_IPNS_12basic_stringIcNS_11char_traitsIcEENS_9allocatorIcEEEEEEEC2B8ue170006ES8_, symObjAddr: 0x9084, symBinAddr: 0x10000B438, symSize: 0x2C }
  - { offsetInCU: 0x1C8EF, offset: 0x1C8EF, size: 0x8, addend: 0x0, symName: __ZNSt3__116reverse_iteratorIPNS_12basic_stringIcNS_11char_traitsIcEENS_9allocatorIcEEEEEC2B8ue170006ES7_, symObjAddr: 0x90B0, symBinAddr: 0x10000B464, symSize: 0x28 }
  - { offsetInCU: 0x1C927, offset: 0x1C927, size: 0x8, addend: 0x0, symName: __ZNSt3__114__split_bufferINS_12basic_stringIcNS_11char_traitsIcEENS_9allocatorIcEEEERNS4_IS6_EEED2Ev, symObjAddr: 0x90D8, symBinAddr: 0x10000B48C, symSize: 0x8C }
  - { offsetInCU: 0x1C953, offset: 0x1C953, size: 0x8, addend: 0x0, symName: __ZNSt3__114__split_bufferINS_12basic_stringIcNS_11char_traitsIcEENS_9allocatorIcEEEERNS4_IS6_EEE5clearB8ue170006Ev, symObjAddr: 0x9164, symBinAddr: 0x10000B518, symSize: 0x28 }
  - { offsetInCU: 0x1C979, offset: 0x1C979, size: 0x8, addend: 0x0, symName: __ZNKSt3__114__split_bufferINS_12basic_stringIcNS_11char_traitsIcEENS_9allocatorIcEEEERNS4_IS6_EEE8capacityB8ue170006Ev, symObjAddr: 0x918C, symBinAddr: 0x10000B540, symSize: 0x40 }
  - { offsetInCU: 0x1C99F, offset: 0x1C99F, size: 0x8, addend: 0x0, symName: __ZNSt3__114__split_bufferINS_12basic_stringIcNS_11char_traitsIcEENS_9allocatorIcEEEERNS4_IS6_EEE17__destruct_at_endB8ue170006EPS6_, symObjAddr: 0x91CC, symBinAddr: 0x10000B580, symSize: 0x2C }
  - { offsetInCU: 0x1C9D3, offset: 0x1C9D3, size: 0x8, addend: 0x0, symName: __ZNSt3__114__split_bufferINS_12basic_stringIcNS_11char_traitsIcEENS_9allocatorIcEEEERNS4_IS6_EEE17__destruct_at_endB8ue170006EPS6_NS_17integral_constantIbLb0EEE, symObjAddr: 0x91F8, symBinAddr: 0x10000B5AC, symSize: 0x80 }
  - { offsetInCU: 0x1CA14, offset: 0x1CA14, size: 0x8, addend: 0x0, symName: __ZNKSt3__114__split_bufferINS_12basic_stringIcNS_11char_traitsIcEENS_9allocatorIcEEEERNS4_IS6_EEE9__end_capB8ue170006Ev, symObjAddr: 0x9278, symBinAddr: 0x10000B62C, symSize: 0x28 }
  - { offsetInCU: 0x1CA3A, offset: 0x1CA3A, size: 0x8, addend: 0x0, symName: __ZNKSt3__117__compressed_pairIPNS_12basic_stringIcNS_11char_traitsIcEENS_9allocatorIcEEEERNS4_IS6_EEE5firstB8ue170006Ev, symObjAddr: 0x92A0, symBinAddr: 0x10000B654, symSize: 0x24 }
  - { offsetInCU: 0x1CA60, offset: 0x1CA60, size: 0x8, addend: 0x0, symName: __ZNSt3__16vectorI6PlayerNS_9allocatorIS1_EEEC2B8ue170006Ev, symObjAddr: 0x92C4, symBinAddr: 0x10000B678, symSize: 0x4C }
  - { offsetInCU: 0x1CA8A, offset: 0x1CA8A, size: 0x8, addend: 0x0, symName: __ZNSt3__117__compressed_pairIP6PlayerNS_9allocatorIS1_EEEC1B8ue170006IDnNS_18__default_init_tagEEEOT_OT0_, symObjAddr: 0x9310, symBinAddr: 0x10000B6C4, symSize: 0x3C }
  - { offsetInCU: 0x1CAE2, offset: 0x1CAE2, size: 0x8, addend: 0x0, symName: __ZNSt3__117__compressed_pairIP6PlayerNS_9allocatorIS1_EEEC2B8ue170006IDnNS_18__default_init_tagEEEOT_OT0_, symObjAddr: 0x934C, symBinAddr: 0x10000B700, symSize: 0x40 }
  - { offsetInCU: 0x1CB3A, offset: 0x1CB3A, size: 0x8, addend: 0x0, symName: __ZNSt3__122__compressed_pair_elemIP6PlayerLi0ELb0EEC2B8ue170006IDnvEEOT_, symObjAddr: 0x938C, symBinAddr: 0x10000B740, symSize: 0x1C }
  - { offsetInCU: 0x1CB7C, offset: 0x1CB7C, size: 0x8, addend: 0x0, symName: __ZNSt3__122__compressed_pair_elemINS_9allocatorI6PlayerEELi1ELb1EEC2B8ue170006ENS_18__default_init_tagE, symObjAddr: 0x93A8, symBinAddr: 0x10000B75C, symSize: 0x2C }
  - { offsetInCU: 0x1CBB1, offset: 0x1CBB1, size: 0x8, addend: 0x0, symName: __ZNSt3__19allocatorI6PlayerEC2B8ue170006Ev, symObjAddr: 0x93D4, symBinAddr: 0x10000B788, symSize: 0x2C }
  - { offsetInCU: 0x1CBDB, offset: 0x1CBDB, size: 0x8, addend: 0x0, symName: __ZNSt3__116__non_trivial_ifILb1ENS_9allocatorI6PlayerEEEC2B8ue170006Ev, symObjAddr: 0x9400, symBinAddr: 0x10000B7B4, symSize: 0x14 }
  - { offsetInCU: 0x1CC05, offset: 0x1CC05, size: 0x8, addend: 0x0, symName: __ZNSt3__16vectorI6PlayerNS_9allocatorIS1_EEED2B8ue170006Ev, symObjAddr: 0x9414, symBinAddr: 0x10000B7C8, symSize: 0x44 }
  - { offsetInCU: 0x1CC2F, offset: 0x1CC2F, size: 0x8, addend: 0x0, symName: __ZNSt3__16vectorI6PlayerNS_9allocatorIS1_EEE16__destroy_vectorC1B8ue170006ERS4_, symObjAddr: 0x9458, symBinAddr: 0x10000B80C, symSize: 0x34 }
  - { offsetInCU: 0x1CC68, offset: 0x1CC68, size: 0x8, addend: 0x0, symName: __ZNSt3__16vectorI6PlayerNS_9allocatorIS1_EEE16__destroy_vectorclB8ue170006Ev, symObjAddr: 0x948C, symBinAddr: 0x10000B840, symSize: 0x90 }
  - { offsetInCU: 0x1CC8E, offset: 0x1CC8E, size: 0x8, addend: 0x0, symName: __ZNSt3__16vectorI6PlayerNS_9allocatorIS1_EEE16__destroy_vectorC2B8ue170006ERS4_, symObjAddr: 0x951C, symBinAddr: 0x10000B8D0, symSize: 0x20 }
  - { offsetInCU: 0x1CCC7, offset: 0x1CCC7, size: 0x8, addend: 0x0, symName: __ZNSt3__16vectorI6PlayerNS_9allocatorIS1_EEE7__clearB8ue170006Ev, symObjAddr: 0x953C, symBinAddr: 0x10000B8F0, symSize: 0x28 }
  - { offsetInCU: 0x1CCED, offset: 0x1CCED, size: 0x8, addend: 0x0, symName: __ZNKSt3__16vectorI6PlayerNS_9allocatorIS1_EEE17__annotate_deleteB8ue170006Ev, symObjAddr: 0x9564, symBinAddr: 0x10000B918, symSize: 0xD4 }
  - { offsetInCU: 0x1CD13, offset: 0x1CD13, size: 0x8, addend: 0x0, symName: __ZNSt3__116allocator_traitsINS_9allocatorI6PlayerEEE10deallocateB8ue170006ERS3_PS2_m, symObjAddr: 0x9638, symBinAddr: 0x10000B9EC, symSize: 0x34 }
  - { offsetInCU: 0x1CD55, offset: 0x1CD55, size: 0x8, addend: 0x0, symName: __ZNSt3__16vectorI6PlayerNS_9allocatorIS1_EEE7__allocB8ue170006Ev, symObjAddr: 0x966C, symBinAddr: 0x10000BA20, symSize: 0x28 }
  - { offsetInCU: 0x1CD7B, offset: 0x1CD7B, size: 0x8, addend: 0x0, symName: __ZNKSt3__16vectorI6PlayerNS_9allocatorIS1_EEE8capacityB8ue170006Ev, symObjAddr: 0x9694, symBinAddr: 0x10000BA48, symSize: 0x40 }
  - { offsetInCU: 0x1CDA1, offset: 0x1CDA1, size: 0x8, addend: 0x0, symName: __ZNSt3__16vectorI6PlayerNS_9allocatorIS1_EEE22__base_destruct_at_endB8ue170006EPS1_, symObjAddr: 0x96D4, symBinAddr: 0x10000BA88, symSize: 0x8C }
  - { offsetInCU: 0x1CDE5, offset: 0x1CDE5, size: 0x8, addend: 0x0, symName: __ZNSt3__116allocator_traitsINS_9allocatorI6PlayerEEE7destroyB8ue170006IS2_vEEvRS3_PT_, symObjAddr: 0x9760, symBinAddr: 0x10000BB14, symSize: 0x2C }
  - { offsetInCU: 0x1CE22, offset: 0x1CE22, size: 0x8, addend: 0x0, symName: __ZNSt3__19allocatorI6PlayerE7destroyB8ue170006EPS1_, symObjAddr: 0x97A0, symBinAddr: 0x10000BB54, symSize: 0x28 }
  - { offsetInCU: 0x1CE56, offset: 0x1CE56, size: 0x8, addend: 0x0, symName: __ZNKSt3__16vectorI6PlayerNS_9allocatorIS1_EEE31__annotate_contiguous_containerB8ue170006EPKvS6_S6_S6_, symObjAddr: 0x97C8, symBinAddr: 0x10000BB7C, symSize: 0x20 }
  - { offsetInCU: 0x1CEAC, offset: 0x1CEAC, size: 0x8, addend: 0x0, symName: __ZNKSt3__16vectorI6PlayerNS_9allocatorIS1_EEE4dataB8ue170006Ev, symObjAddr: 0x97E8, symBinAddr: 0x10000BB9C, symSize: 0x28 }
  - { offsetInCU: 0x1CED2, offset: 0x1CED2, size: 0x8, addend: 0x0, symName: __ZNSt3__19allocatorI6PlayerE10deallocateB8ue170006EPS1_m, symObjAddr: 0x9810, symBinAddr: 0x10000BBC4, symSize: 0x44 }
  - { offsetInCU: 0x1CF14, offset: 0x1CF14, size: 0x8, addend: 0x0, symName: __ZNSt3__117__compressed_pairIP6PlayerNS_9allocatorIS1_EEE6secondB8ue170006Ev, symObjAddr: 0x9854, symBinAddr: 0x10000BC08, symSize: 0x24 }
  - { offsetInCU: 0x1CF3A, offset: 0x1CF3A, size: 0x8, addend: 0x0, symName: __ZNSt3__122__compressed_pair_elemINS_9allocatorI6PlayerEELi1ELb1EE5__getB8ue170006Ev, symObjAddr: 0x9878, symBinAddr: 0x10000BC2C, symSize: 0x14 }
  - { offsetInCU: 0x1CF60, offset: 0x1CF60, size: 0x8, addend: 0x0, symName: __ZNKSt3__16vectorI6PlayerNS_9allocatorIS1_EEE9__end_capB8ue170006Ev, symObjAddr: 0x988C, symBinAddr: 0x10000BC40, symSize: 0x28 }
  - { offsetInCU: 0x1CF86, offset: 0x1CF86, size: 0x8, addend: 0x0, symName: __ZNKSt3__117__compressed_pairIP6PlayerNS_9allocatorIS1_EEE5firstB8ue170006Ev, symObjAddr: 0x98B4, symBinAddr: 0x10000BC68, symSize: 0x24 }
  - { offsetInCU: 0x1CFAC, offset: 0x1CFAC, size: 0x8, addend: 0x0, symName: __ZNKSt3__122__compressed_pair_elemIP6PlayerLi0ELb0EE5__getB8ue170006Ev, symObjAddr: 0x98D8, symBinAddr: 0x10000BC8C, symSize: 0x14 }
  - { offsetInCU: 0x1CFD2, offset: 0x1CFD2, size: 0x8, addend: 0x0, symName: __ZNSt3__16vectorI6PlayerNS_9allocatorIS1_EEE9__end_capB8ue170006Ev, symObjAddr: 0x98EC, symBinAddr: 0x10000BCA0, symSize: 0x28 }
  - { offsetInCU: 0x1CFFD, offset: 0x1CFFD, size: 0x8, addend: 0x0, symName: __ZNSt3__16vectorI6PlayerNS_9allocatorIS1_EEE22__construct_one_at_endB8ue170006IJS1_EEEvDpOT_, symObjAddr: 0x9914, symBinAddr: 0x10000BCC8, symSize: 0x90 }
  - { offsetInCU: 0x1D04C, offset: 0x1D04C, size: 0x8, addend: 0x0, symName: __ZNSt3__16vectorI6PlayerNS_9allocatorIS1_EEE21__push_back_slow_pathIS1_EEvOT_, symObjAddr: 0x99A4, symBinAddr: 0x10000BD58, symSize: 0xD8 }
  - { offsetInCU: 0x1D0AA, offset: 0x1D0AA, size: 0x8, addend: 0x0, symName: __ZNSt3__117__compressed_pairIP6PlayerNS_9allocatorIS1_EEE5firstB8ue170006Ev, symObjAddr: 0x9A7C, symBinAddr: 0x10000BE30, symSize: 0x24 }
  - { offsetInCU: 0x1D0D0, offset: 0x1D0D0, size: 0x8, addend: 0x0, symName: __ZNSt3__122__compressed_pair_elemIP6PlayerLi0ELb0EE5__getB8ue170006Ev, symObjAddr: 0x9AA0, symBinAddr: 0x10000BE54, symSize: 0x14 }
  - { offsetInCU: 0x1D10F, offset: 0x1D10F, size: 0x8, addend: 0x0, symName: __ZNSt3__16vectorI6PlayerNS_9allocatorIS1_EEE21_ConstructTransactionC1B8ue170006ERS4_m, symObjAddr: 0x9AB4, symBinAddr: 0x10000BE68, symSize: 0x3C }
  - { offsetInCU: 0x1D157, offset: 0x1D157, size: 0x8, addend: 0x0, symName: __ZNSt3__116allocator_traitsINS_9allocatorI6PlayerEEE9constructB8ue170006IS2_JS2_EvEEvRS3_PT_DpOT0_, symObjAddr: 0x9AF0, symBinAddr: 0x10000BEA4, symSize: 0x34 }
  - { offsetInCU: 0x1D1AE, offset: 0x1D1AE, size: 0x8, addend: 0x0, symName: __ZNSt3__16vectorI6PlayerNS_9allocatorIS1_EEE21_ConstructTransactionD1B8ue170006Ev, symObjAddr: 0x9B24, symBinAddr: 0x10000BED8, symSize: 0x2C }
  - { offsetInCU: 0x1D1D8, offset: 0x1D1D8, size: 0x8, addend: 0x0, symName: __ZNSt3__16vectorI6PlayerNS_9allocatorIS1_EEE21_ConstructTransactionC2B8ue170006ERS4_m, symObjAddr: 0x9B50, symBinAddr: 0x10000BF04, symSize: 0x4C }
  - { offsetInCU: 0x1D220, offset: 0x1D220, size: 0x8, addend: 0x0, symName: __ZNSt3__19allocatorI6PlayerE9constructB8ue170006IS1_JS1_EEEvPT_DpOT0_, symObjAddr: 0x9B9C, symBinAddr: 0x10000BF50, symSize: 0x30 }
  - { offsetInCU: 0x1D276, offset: 0x1D276, size: 0x8, addend: 0x0, symName: __ZN6PlayerC1EOS_, symObjAddr: 0x9BCC, symBinAddr: 0x10000BF80, symSize: 0x34 }
  - { offsetInCU: 0x1D2AB, offset: 0x1D2AB, size: 0x8, addend: 0x0, symName: __ZN6PlayerC2EOS_, symObjAddr: 0x9C00, symBinAddr: 0x10000BFB4, symSize: 0x68 }
  - { offsetInCU: 0x1D2E0, offset: 0x1D2E0, size: 0x8, addend: 0x0, symName: __ZN7AdvisorC1EOS_, symObjAddr: 0x9C68, symBinAddr: 0x10000C01C, symSize: 0x34 }
  - { offsetInCU: 0x1D315, offset: 0x1D315, size: 0x8, addend: 0x0, symName: __ZN7AdvisorC2EOS_, symObjAddr: 0x9C9C, symBinAddr: 0x10000C050, symSize: 0x6C }
  - { offsetInCU: 0x1D34A, offset: 0x1D34A, size: 0x8, addend: 0x0, symName: __ZNSt3__16vectorI6PlayerNS_9allocatorIS1_EEE21_ConstructTransactionD2B8ue170006Ev, symObjAddr: 0x9D08, symBinAddr: 0x10000C0BC, symSize: 0x20 }
  - { offsetInCU: 0x1D374, offset: 0x1D374, size: 0x8, addend: 0x0, symName: __ZNKSt3__16vectorI6PlayerNS_9allocatorIS1_EEE11__recommendB8ue170006Em, symObjAddr: 0x9D28, symBinAddr: 0x10000C0DC, symSize: 0xB4 }
  - { offsetInCU: 0x1D3C9, offset: 0x1D3C9, size: 0x8, addend: 0x0, symName: __ZNSt3__114__split_bufferI6PlayerRNS_9allocatorIS1_EEEC1EmmS4_, symObjAddr: 0x9DDC, symBinAddr: 0x10000C190, symSize: 0x44 }
  - { offsetInCU: 0x1D41F, offset: 0x1D41F, size: 0x8, addend: 0x0, symName: __ZNSt3__114__split_bufferI6PlayerRNS_9allocatorIS1_EEED1Ev, symObjAddr: 0x9F30, symBinAddr: 0x10000C2E4, symSize: 0x2C }
  - { offsetInCU: 0x1D44B, offset: 0x1D44B, size: 0x8, addend: 0x0, symName: __ZNKSt3__16vectorI6PlayerNS_9allocatorIS1_EEE8max_sizeEv, symObjAddr: 0x9F5C, symBinAddr: 0x10000C310, symSize: 0x60 }
  - { offsetInCU: 0x1D473, offset: 0x1D473, size: 0x8, addend: 0x0, symName: __ZNKSt3__16vectorI6PlayerNS_9allocatorIS1_EEE20__throw_length_errorB8ue170006Ev, symObjAddr: 0x9FBC, symBinAddr: 0x10000C370, symSize: 0x1C }
  - { offsetInCU: 0x1D4A3, offset: 0x1D4A3, size: 0x8, addend: 0x0, symName: __ZNSt3__116allocator_traitsINS_9allocatorI6PlayerEEE8max_sizeB8ue170006IS3_vEEmRKS3_, symObjAddr: 0x9FD8, symBinAddr: 0x10000C38C, symSize: 0x24 }
  - { offsetInCU: 0x1D4D1, offset: 0x1D4D1, size: 0x8, addend: 0x0, symName: __ZNKSt3__16vectorI6PlayerNS_9allocatorIS1_EEE7__allocB8ue170006Ev, symObjAddr: 0x9FFC, symBinAddr: 0x10000C3B0, symSize: 0x28 }
  - { offsetInCU: 0x1D4F7, offset: 0x1D4F7, size: 0x8, addend: 0x0, symName: __ZNKSt3__19allocatorI6PlayerE8max_sizeB8ue170006Ev, symObjAddr: 0xA024, symBinAddr: 0x10000C3D8, symSize: 0x18 }
  - { offsetInCU: 0x1D51D, offset: 0x1D51D, size: 0x8, addend: 0x0, symName: __ZNKSt3__117__compressed_pairIP6PlayerNS_9allocatorIS1_EEE6secondB8ue170006Ev, symObjAddr: 0xA03C, symBinAddr: 0x10000C3F0, symSize: 0x24 }
  - { offsetInCU: 0x1D543, offset: 0x1D543, size: 0x8, addend: 0x0, symName: __ZNKSt3__122__compressed_pair_elemINS_9allocatorI6PlayerEELi1ELb1EE5__getB8ue170006Ev, symObjAddr: 0xA060, symBinAddr: 0x10000C414, symSize: 0x14 }
  - { offsetInCU: 0x1D569, offset: 0x1D569, size: 0x8, addend: 0x0, symName: __ZNSt3__114__split_bufferI6PlayerRNS_9allocatorIS1_EEEC2EmmS4_, symObjAddr: 0xA074, symBinAddr: 0x10000C428, symSize: 0xE0 }
  - { offsetInCU: 0x1D5DC, offset: 0x1D5DC, size: 0x8, addend: 0x0, symName: __ZNSt3__117__compressed_pairIP6PlayerRNS_9allocatorIS1_EEEC1B8ue170006IDnS5_EEOT_OT0_, symObjAddr: 0xA154, symBinAddr: 0x10000C508, symSize: 0x3C }
  - { offsetInCU: 0x1D634, offset: 0x1D634, size: 0x8, addend: 0x0, symName: __ZNSt3__114__split_bufferI6PlayerRNS_9allocatorIS1_EEE7__allocB8ue170006Ev, symObjAddr: 0xA1D0, symBinAddr: 0x10000C584, symSize: 0x28 }
  - { offsetInCU: 0x1D65A, offset: 0x1D65A, size: 0x8, addend: 0x0, symName: __ZNSt3__114__split_bufferI6PlayerRNS_9allocatorIS1_EEE9__end_capB8ue170006Ev, symObjAddr: 0xA1F8, symBinAddr: 0x10000C5AC, symSize: 0x28 }
  - { offsetInCU: 0x1D680, offset: 0x1D680, size: 0x8, addend: 0x0, symName: __ZNSt3__117__compressed_pairIP6PlayerRNS_9allocatorIS1_EEEC2B8ue170006IDnS5_EEOT_OT0_, symObjAddr: 0xA220, symBinAddr: 0x10000C5D4, symSize: 0x48 }
  - { offsetInCU: 0x1D6D8, offset: 0x1D6D8, size: 0x8, addend: 0x0, symName: __ZNSt3__122__compressed_pair_elemIRNS_9allocatorI6PlayerEELi1ELb0EEC2B8ue170006IS4_vEEOT_, symObjAddr: 0xA268, symBinAddr: 0x10000C61C, symSize: 0x20 }
  - { offsetInCU: 0x1D71A, offset: 0x1D71A, size: 0x8, addend: 0x0, symName: __ZNSt3__19allocatorI6PlayerE8allocateB8ue170006Em, symObjAddr: 0xA288, symBinAddr: 0x10000C63C, symSize: 0x5C }
  - { offsetInCU: 0x1D74E, offset: 0x1D74E, size: 0x8, addend: 0x0, symName: __ZNSt3__117__compressed_pairIP6PlayerRNS_9allocatorIS1_EEE6secondB8ue170006Ev, symObjAddr: 0xA2E4, symBinAddr: 0x10000C698, symSize: 0x28 }
  - { offsetInCU: 0x1D774, offset: 0x1D774, size: 0x8, addend: 0x0, symName: __ZNSt3__122__compressed_pair_elemIRNS_9allocatorI6PlayerEELi1ELb0EE5__getB8ue170006Ev, symObjAddr: 0xA30C, symBinAddr: 0x10000C6C0, symSize: 0x18 }
  - { offsetInCU: 0x1D79A, offset: 0x1D79A, size: 0x8, addend: 0x0, symName: __ZNSt3__117__compressed_pairIP6PlayerRNS_9allocatorIS1_EEE5firstB8ue170006Ev, symObjAddr: 0xA324, symBinAddr: 0x10000C6D8, symSize: 0x24 }
  - { offsetInCU: 0x1D7C0, offset: 0x1D7C0, size: 0x8, addend: 0x0, symName: __ZNSt3__116reverse_iteratorIP6PlayerEC1B8ue170006ES2_, symObjAddr: 0xA474, symBinAddr: 0x10000C828, symSize: 0x34 }
  - { offsetInCU: 0x1D7F8, offset: 0x1D7F8, size: 0x8, addend: 0x0, symName: __ZNKSt3__116reverse_iteratorIP6PlayerE4baseB8ue170006Ev, symObjAddr: 0xA4A8, symBinAddr: 0x10000C85C, symSize: 0x18 }
  - { offsetInCU: 0x1D81E, offset: 0x1D81E, size: 0x8, addend: 0x0, symName: __ZNKSt3__16vectorI6PlayerNS_9allocatorIS1_EEE14__annotate_newB8ue170006Em, symObjAddr: 0xA4FC, symBinAddr: 0x10000C8B0, symSize: 0xC8 }
  - { offsetInCU: 0x1D853, offset: 0x1D853, size: 0x8, addend: 0x0, symName: __ZNSt3__129_AllocatorDestroyRangeReverseINS_9allocatorI6PlayerEENS_16reverse_iteratorIPS2_EEEC1B8ue170006ERS3_RS6_S9_, symObjAddr: 0xA610, symBinAddr: 0x10000C9C4, symSize: 0x44 }
  - { offsetInCU: 0x1D8AA, offset: 0x1D8AA, size: 0x8, addend: 0x0, symName: __ZNKSt3__116reverse_iteratorIP6PlayerEdeB8ue170006Ev, symObjAddr: 0xA6C0, symBinAddr: 0x10000CA74, symSize: 0x28 }
  - { offsetInCU: 0x1D8DE, offset: 0x1D8DE, size: 0x8, addend: 0x0, symName: __ZNSt3__116reverse_iteratorIP6PlayerEppB8ue170006Ev, symObjAddr: 0xA6E8, symBinAddr: 0x10000CA9C, symSize: 0x20 }
  - { offsetInCU: 0x1D904, offset: 0x1D904, size: 0x8, addend: 0x0, symName: __ZNSt3__128__exception_guard_exceptionsINS_29_AllocatorDestroyRangeReverseINS_9allocatorI6PlayerEENS_16reverse_iteratorIPS3_EEEEE10__completeB8ue170006Ev, symObjAddr: 0xA708, symBinAddr: 0x10000CABC, symSize: 0x1C }
  - { offsetInCU: 0x1D92A, offset: 0x1D92A, size: 0x8, addend: 0x0, symName: __ZNSt3__128__exception_guard_exceptionsINS_29_AllocatorDestroyRangeReverseINS_9allocatorI6PlayerEENS_16reverse_iteratorIPS3_EEEEED1B8ue170006Ev, symObjAddr: 0xA724, symBinAddr: 0x10000CAD8, symSize: 0x2C }
  - { offsetInCU: 0x1D954, offset: 0x1D954, size: 0x8, addend: 0x0, symName: __ZNSt3__128__exception_guard_exceptionsINS_29_AllocatorDestroyRangeReverseINS_9allocatorI6PlayerEENS_16reverse_iteratorIPS3_EEEEEC1B8ue170006ES8_, symObjAddr: 0xA750, symBinAddr: 0x10000CB04, symSize: 0x34 }
  - { offsetInCU: 0x1D98D, offset: 0x1D98D, size: 0x8, addend: 0x0, symName: __ZNSt3__128__exception_guard_exceptionsINS_29_AllocatorDestroyRangeReverseINS_9allocatorI6PlayerEENS_16reverse_iteratorIPS3_EEEEEC2B8ue170006ES8_, symObjAddr: 0xA784, symBinAddr: 0x10000CB38, symSize: 0x30 }
  - { offsetInCU: 0x1D9C6, offset: 0x1D9C6, size: 0x8, addend: 0x0, symName: __ZNSt3__129_AllocatorDestroyRangeReverseINS_9allocatorI6PlayerEENS_16reverse_iteratorIPS2_EEEC2B8ue170006ERS3_RS6_S9_, symObjAddr: 0xA7B4, symBinAddr: 0x10000CB68, symSize: 0x38 }
  - { offsetInCU: 0x1DA22, offset: 0x1DA22, size: 0x8, addend: 0x0, symName: __ZNSt3__119__to_address_helperINS_16reverse_iteratorIP6PlayerEEvE6__callB8ue170006ERKS4_, symObjAddr: 0xA7EC, symBinAddr: 0x10000CBA0, symSize: 0x38 }
  - { offsetInCU: 0x1DA45, offset: 0x1DA45, size: 0x8, addend: 0x0, symName: __ZNKSt3__116reverse_iteratorIP6PlayerEptB8ue170006Ev, symObjAddr: 0xA824, symBinAddr: 0x10000CBD8, symSize: 0x24 }
  - { offsetInCU: 0x1DA6B, offset: 0x1DA6B, size: 0x8, addend: 0x0, symName: __ZNSt3__128__exception_guard_exceptionsINS_29_AllocatorDestroyRangeReverseINS_9allocatorI6PlayerEENS_16reverse_iteratorIPS3_EEEEED2B8ue170006Ev, symObjAddr: 0xA848, symBinAddr: 0x10000CBFC, symSize: 0x50 }
  - { offsetInCU: 0x1DA95, offset: 0x1DA95, size: 0x8, addend: 0x0, symName: __ZNKSt3__129_AllocatorDestroyRangeReverseINS_9allocatorI6PlayerEENS_16reverse_iteratorIPS2_EEEclB8ue170006Ev, symObjAddr: 0xA898, symBinAddr: 0x10000CC4C, symSize: 0xB4 }
  - { offsetInCU: 0x1DABC, offset: 0x1DABC, size: 0x8, addend: 0x0, symName: __ZNSt3__116reverse_iteratorINS0_IP6PlayerEEEC1B8ue170006ES3_, symObjAddr: 0xA9BC, symBinAddr: 0x10000CD70, symSize: 0x3C }
  - { offsetInCU: 0x1DAF4, offset: 0x1DAF4, size: 0x8, addend: 0x0, symName: __ZNSt3__116reverse_iteratorINS0_IP6PlayerEEEppB8ue170006Ev, symObjAddr: 0xAA7C, symBinAddr: 0x10000CE30, symSize: 0x30 }
  - { offsetInCU: 0x1DB1A, offset: 0x1DB1A, size: 0x8, addend: 0x0, symName: __ZNKSt3__116reverse_iteratorINS0_IP6PlayerEEE4baseB8ue170006Ev, symObjAddr: 0xAAAC, symBinAddr: 0x10000CE60, symSize: 0x24 }
  - { offsetInCU: 0x1DB45, offset: 0x1DB45, size: 0x8, addend: 0x0, symName: __ZNSt3__119__to_address_helperINS_16reverse_iteratorINS1_IP6PlayerEEEEvE6__callB8ue170006ERKS5_, symObjAddr: 0xAAD0, symBinAddr: 0x10000CE84, symSize: 0x38 }
  - { offsetInCU: 0x1DB68, offset: 0x1DB68, size: 0x8, addend: 0x0, symName: __ZNKSt3__116reverse_iteratorINS0_IP6PlayerEEEptB8ue170006Ev, symObjAddr: 0xAB08, symBinAddr: 0x10000CEBC, symSize: 0x24 }
  - { offsetInCU: 0x1DB8E, offset: 0x1DB8E, size: 0x8, addend: 0x0, symName: __ZNKSt3__116reverse_iteratorINS0_IP6PlayerEEEdeB8ue170006Ev, symObjAddr: 0xAB2C, symBinAddr: 0x10000CEE0, symSize: 0x34 }
  - { offsetInCU: 0x1DBC2, offset: 0x1DBC2, size: 0x8, addend: 0x0, symName: __ZNSt3__116reverse_iteratorIP6PlayerEmmB8ue170006Ev, symObjAddr: 0xAB60, symBinAddr: 0x10000CF14, symSize: 0x20 }
  - { offsetInCU: 0x1DBE8, offset: 0x1DBE8, size: 0x8, addend: 0x0, symName: __ZNSt3__116reverse_iteratorINS0_IP6PlayerEEEC2B8ue170006ES3_, symObjAddr: 0xAB80, symBinAddr: 0x10000CF34, symSize: 0x2C }
  - { offsetInCU: 0x1DC20, offset: 0x1DC20, size: 0x8, addend: 0x0, symName: __ZNSt3__116reverse_iteratorIP6PlayerEC2B8ue170006ES2_, symObjAddr: 0xABAC, symBinAddr: 0x10000CF60, symSize: 0x28 }
  - { offsetInCU: 0x1DC58, offset: 0x1DC58, size: 0x8, addend: 0x0, symName: __ZNSt3__114__split_bufferI6PlayerRNS_9allocatorIS1_EEED2Ev, symObjAddr: 0xABD4, symBinAddr: 0x10000CF88, symSize: 0x8C }
  - { offsetInCU: 0x1DC84, offset: 0x1DC84, size: 0x8, addend: 0x0, symName: __ZNSt3__114__split_bufferI6PlayerRNS_9allocatorIS1_EEE5clearB8ue170006Ev, symObjAddr: 0xAC60, symBinAddr: 0x10000D014, symSize: 0x28 }
  - { offsetInCU: 0x1DCAA, offset: 0x1DCAA, size: 0x8, addend: 0x0, symName: __ZNKSt3__114__split_bufferI6PlayerRNS_9allocatorIS1_EEE8capacityB8ue170006Ev, symObjAddr: 0xAC88, symBinAddr: 0x10000D03C, symSize: 0x40 }
  - { offsetInCU: 0x1DCD0, offset: 0x1DCD0, size: 0x8, addend: 0x0, symName: __ZNSt3__114__split_bufferI6PlayerRNS_9allocatorIS1_EEE17__destruct_at_endB8ue170006EPS1_, symObjAddr: 0xACC8, symBinAddr: 0x10000D07C, symSize: 0x2C }
  - { offsetInCU: 0x1DD04, offset: 0x1DD04, size: 0x8, addend: 0x0, symName: __ZNSt3__114__split_bufferI6PlayerRNS_9allocatorIS1_EEE17__destruct_at_endB8ue170006EPS1_NS_17integral_constantIbLb0EEE, symObjAddr: 0xACF4, symBinAddr: 0x10000D0A8, symSize: 0x80 }
  - { offsetInCU: 0x1DD45, offset: 0x1DD45, size: 0x8, addend: 0x0, symName: __ZNKSt3__114__split_bufferI6PlayerRNS_9allocatorIS1_EEE9__end_capB8ue170006Ev, symObjAddr: 0xAD74, symBinAddr: 0x10000D128, symSize: 0x28 }
  - { offsetInCU: 0x1DD6B, offset: 0x1DD6B, size: 0x8, addend: 0x0, symName: __ZNKSt3__117__compressed_pairIP6PlayerRNS_9allocatorIS1_EEE5firstB8ue170006Ev, symObjAddr: 0xAD9C, symBinAddr: 0x10000D150, symSize: 0x24 }
  - { offsetInCU: 0x1DD91, offset: 0x1DD91, size: 0x8, addend: 0x0, symName: __ZNSt3__16vectorI6PlayerNS_9allocatorIS1_EEE11__make_iterB8ue170006EPS1_, symObjAddr: 0xADC0, symBinAddr: 0x10000D174, symSize: 0x30 }
  - { offsetInCU: 0x1DDC6, offset: 0x1DDC6, size: 0x8, addend: 0x0, symName: __ZNSt3__111__wrap_iterIP6PlayerEC1B8ue170006ES2_, symObjAddr: 0xADF0, symBinAddr: 0x10000D1A4, symSize: 0x34 }
  - { offsetInCU: 0x1DDFE, offset: 0x1DDFE, size: 0x8, addend: 0x0, symName: __ZNSt3__111__wrap_iterIP6PlayerEC2B8ue170006ES2_, symObjAddr: 0xAE24, symBinAddr: 0x10000D1D8, symSize: 0x20 }
  - { offsetInCU: 0x1DE36, offset: 0x1DE36, size: 0x8, addend: 0x0, symName: __ZNKSt3__16vectorI6PlayerNS_9allocatorIS1_EEE6cbeginB8ue170006Ev, symObjAddr: 0xAE8C, symBinAddr: 0x10000D240, symSize: 0x2C }
  - { offsetInCU: 0x1DE5C, offset: 0x1DE5C, size: 0x8, addend: 0x0, symName: __ZNSt3__16vectorI6PlayerNS_9allocatorIS1_EEE17__destruct_at_endB8ue170006EPS1_, symObjAddr: 0xAEB8, symBinAddr: 0x10000D26C, symSize: 0x4C }
  - { offsetInCU: 0x1DEA0, offset: 0x1DEA0, size: 0x8, addend: 0x0, symName: __ZNKSt3__111__wrap_iterIPK6PlayerE4baseB8ue170006Ev, symObjAddr: 0xAF44, symBinAddr: 0x10000D2F8, symSize: 0x18 }
  - { offsetInCU: 0x1DEC6, offset: 0x1DEC6, size: 0x8, addend: 0x0, symName: __ZNKSt3__16vectorI6PlayerNS_9allocatorIS1_EEE5beginB8ue170006Ev, symObjAddr: 0xAF5C, symBinAddr: 0x10000D310, symSize: 0x30 }
  - { offsetInCU: 0x1DEEE, offset: 0x1DEEE, size: 0x8, addend: 0x0, symName: __ZNKSt3__16vectorI6PlayerNS_9allocatorIS1_EEE11__make_iterB8ue170006EPKS1_, symObjAddr: 0xAF8C, symBinAddr: 0x10000D340, symSize: 0x30 }
  - { offsetInCU: 0x1DF23, offset: 0x1DF23, size: 0x8, addend: 0x0, symName: __ZNSt3__111__wrap_iterIPK6PlayerEC1B8ue170006ES3_, symObjAddr: 0xAFBC, symBinAddr: 0x10000D370, symSize: 0x34 }
  - { offsetInCU: 0x1DF5B, offset: 0x1DF5B, size: 0x8, addend: 0x0, symName: __ZNSt3__111__wrap_iterIPK6PlayerEC2B8ue170006ES3_, symObjAddr: 0xAFF0, symBinAddr: 0x10000D3A4, symSize: 0x20 }
  - { offsetInCU: 0x1DF93, offset: 0x1DF93, size: 0x8, addend: 0x0, symName: __ZNKSt3__16vectorI6PlayerNS_9allocatorIS1_EEE17__annotate_shrinkB8ue170006Em, symObjAddr: 0xB010, symBinAddr: 0x10000D3C4, symSize: 0xD0 }
  - { offsetInCU: 0x1DFEB, offset: 0x1DFEB, size: 0x8, addend: 0x0, symName: __ZNKSt3__111__move_loopINS_17_ClassicAlgPolicyEEclB8ue170006IP6PlayerS5_S5_EENS_4pairIT_T1_EES7_T0_S8_, symObjAddr: 0xB27C, symBinAddr: 0x10000D630, symSize: 0x90 }
  - { offsetInCU: 0x1E056, offset: 0x1E056, size: 0x8, addend: 0x0, symName: __ZNSt3__18_IterOpsINS_17_ClassicAlgPolicyEE11__iter_moveB8ue170006IRP6PlayerEENS_9enable_ifIXsr12is_referenceIDTdeclsr3stdE7declvalIRT_EEEEE5valueEDTclsr3stdE4movedeclsr3stdE7declvalIS9_EEEEE4typeEOS8_, symObjAddr: 0xB3D0, symBinAddr: 0x10000D784, symSize: 0x28 }
  - { offsetInCU: 0x1E082, offset: 0x1E082, size: 0x8, addend: 0x0, symName: __ZN6PlayeraSEOS_, symObjAddr: 0xB3F8, symBinAddr: 0x10000D7AC, symSize: 0x68 }
  - { offsetInCU: 0x1E0B3, offset: 0x1E0B3, size: 0x8, addend: 0x0, symName: __ZNSt3__18_IterOpsINS_17_ClassicAlgPolicyEE25__validate_iter_referenceB8ue170006IRP6PlayerEEvv, symObjAddr: 0xB460, symBinAddr: 0x10000D814, symSize: 0x4 }
  - { offsetInCU: 0x1E0D1, offset: 0x1E0D1, size: 0x8, addend: 0x0, symName: __ZNSt3__118__unwrap_iter_implIP6PlayerLb1EE8__unwrapB8ue170006ES2_, symObjAddr: 0xB464, symBinAddr: 0x10000D818, symSize: 0x24 }
  - { offsetInCU: 0x1E0F9, offset: 0x1E0F9, size: 0x8, addend: 0x0, symName: __ZNSt3__14pairIP6PlayerS2_EC1B8ue170006IS2_S2_LPv0EEEOT_OT0_, symObjAddr: 0xB488, symBinAddr: 0x10000D83C, symSize: 0x3C }
  - { offsetInCU: 0x1E157, offset: 0x1E157, size: 0x8, addend: 0x0, symName: __ZNSt3__14pairIP6PlayerS2_EC2B8ue170006IS2_S2_LPv0EEEOT_OT0_, symObjAddr: 0xB4C4, symBinAddr: 0x10000D878, symSize: 0x34 }
  - { offsetInCU: 0x1E1B5, offset: 0x1E1B5, size: 0x8, addend: 0x0, symName: __ZNSt3__118__unwrap_iter_implIP6PlayerLb1EE8__rewrapB8ue170006ES2_S2_, symObjAddr: 0xB4F8, symBinAddr: 0x10000D8AC, symSize: 0x58 }
  - { offsetInCU: 0x1E1E6, offset: 0x1E1E6, size: 0x8, addend: 0x0, symName: __ZNSt3__112basic_stringIcNS_11char_traitsIcEENS_9allocatorIcEEEC2B8ue170006ILi0EEEPKc, symObjAddr: 0xB550, symBinAddr: 0x10000D904, symSize: 0x58 }
  - { offsetInCU: 0x1E225, offset: 0x1E225, size: 0x8, addend: 0x0, symName: __ZNSt3__16vectorI5EventNS_9allocatorIS1_EEEC2B8ue170006Ev, symObjAddr: 0xB5A8, symBinAddr: 0x10000D95C, symSize: 0x4C }
  - { offsetInCU: 0x1E24F, offset: 0x1E24F, size: 0x8, addend: 0x0, symName: __ZNSt3__117__compressed_pairIP5EventNS_9allocatorIS1_EEEC1B8ue170006IDnNS_18__default_init_tagEEEOT_OT0_, symObjAddr: 0xB5F4, symBinAddr: 0x10000D9A8, symSize: 0x3C }
  - { offsetInCU: 0x1E2A7, offset: 0x1E2A7, size: 0x8, addend: 0x0, symName: __ZNSt3__117__compressed_pairIP5EventNS_9allocatorIS1_EEEC2B8ue170006IDnNS_18__default_init_tagEEEOT_OT0_, symObjAddr: 0xB630, symBinAddr: 0x10000D9E4, symSize: 0x40 }
  - { offsetInCU: 0x1E2FF, offset: 0x1E2FF, size: 0x8, addend: 0x0, symName: __ZNSt3__122__compressed_pair_elemIP5EventLi0ELb0EEC2B8ue170006IDnvEEOT_, symObjAddr: 0xB670, symBinAddr: 0x10000DA24, symSize: 0x1C }
  - { offsetInCU: 0x1E341, offset: 0x1E341, size: 0x8, addend: 0x0, symName: __ZNSt3__122__compressed_pair_elemINS_9allocatorI5EventEELi1ELb1EEC2B8ue170006ENS_18__default_init_tagE, symObjAddr: 0xB68C, symBinAddr: 0x10000DA40, symSize: 0x2C }
  - { offsetInCU: 0x1E376, offset: 0x1E376, size: 0x8, addend: 0x0, symName: __ZNSt3__19allocatorI5EventEC2B8ue170006Ev, symObjAddr: 0xB6B8, symBinAddr: 0x10000DA6C, symSize: 0x2C }
  - { offsetInCU: 0x1E3A0, offset: 0x1E3A0, size: 0x8, addend: 0x0, symName: __ZNSt3__116__non_trivial_ifILb1ENS_9allocatorI5EventEEEC2B8ue170006Ev, symObjAddr: 0xB6E4, symBinAddr: 0x10000DA98, symSize: 0x14 }
  - { offsetInCU: 0x1E3CA, offset: 0x1E3CA, size: 0x8, addend: 0x0, symName: __ZNSt3__16vectorI5EventNS_9allocatorIS1_EEED2B8ue170006Ev, symObjAddr: 0xB6F8, symBinAddr: 0x10000DAAC, symSize: 0x44 }
  - { offsetInCU: 0x1E3F4, offset: 0x1E3F4, size: 0x8, addend: 0x0, symName: __ZNSt3__16vectorI5EventNS_9allocatorIS1_EEE16__destroy_vectorC1B8ue170006ERS4_, symObjAddr: 0xB73C, symBinAddr: 0x10000DAF0, symSize: 0x34 }
  - { offsetInCU: 0x1E42D, offset: 0x1E42D, size: 0x8, addend: 0x0, symName: __ZNSt3__16vectorI5EventNS_9allocatorIS1_EEE16__destroy_vectorclB8ue170006Ev, symObjAddr: 0xB770, symBinAddr: 0x10000DB24, symSize: 0x90 }
  - { offsetInCU: 0x1E453, offset: 0x1E453, size: 0x8, addend: 0x0, symName: __ZNSt3__16vectorI5EventNS_9allocatorIS1_EEE16__destroy_vectorC2B8ue170006ERS4_, symObjAddr: 0xB800, symBinAddr: 0x10000DBB4, symSize: 0x20 }
  - { offsetInCU: 0x1E48C, offset: 0x1E48C, size: 0x8, addend: 0x0, symName: __ZNSt3__16vectorI5EventNS_9allocatorIS1_EEE7__clearB8ue170006Ev, symObjAddr: 0xB820, symBinAddr: 0x10000DBD4, symSize: 0x28 }
  - { offsetInCU: 0x1E4B2, offset: 0x1E4B2, size: 0x8, addend: 0x0, symName: __ZNKSt3__16vectorI5EventNS_9allocatorIS1_EEE17__annotate_deleteB8ue170006Ev, symObjAddr: 0xB848, symBinAddr: 0x10000DBFC, symSize: 0xD4 }
  - { offsetInCU: 0x1E4D8, offset: 0x1E4D8, size: 0x8, addend: 0x0, symName: __ZNSt3__116allocator_traitsINS_9allocatorI5EventEEE10deallocateB8ue170006ERS3_PS2_m, symObjAddr: 0xB91C, symBinAddr: 0x10000DCD0, symSize: 0x34 }
  - { offsetInCU: 0x1E51A, offset: 0x1E51A, size: 0x8, addend: 0x0, symName: __ZNSt3__16vectorI5EventNS_9allocatorIS1_EEE7__allocB8ue170006Ev, symObjAddr: 0xB950, symBinAddr: 0x10000DD04, symSize: 0x28 }
  - { offsetInCU: 0x1E540, offset: 0x1E540, size: 0x8, addend: 0x0, symName: __ZNKSt3__16vectorI5EventNS_9allocatorIS1_EEE8capacityB8ue170006Ev, symObjAddr: 0xB978, symBinAddr: 0x10000DD2C, symSize: 0x40 }
  - { offsetInCU: 0x1E566, offset: 0x1E566, size: 0x8, addend: 0x0, symName: __ZNSt3__16vectorI5EventNS_9allocatorIS1_EEE22__base_destruct_at_endB8ue170006EPS1_, symObjAddr: 0xB9B8, symBinAddr: 0x10000DD6C, symSize: 0x8C }
  - { offsetInCU: 0x1E5AA, offset: 0x1E5AA, size: 0x8, addend: 0x0, symName: __ZNSt3__116allocator_traitsINS_9allocatorI5EventEEE7destroyB8ue170006IS2_vEEvRS3_PT_, symObjAddr: 0xBA44, symBinAddr: 0x10000DDF8, symSize: 0x2C }
  - { offsetInCU: 0x1E5E7, offset: 0x1E5E7, size: 0x8, addend: 0x0, symName: __ZNSt3__19allocatorI5EventE7destroyB8ue170006EPS1_, symObjAddr: 0xBA84, symBinAddr: 0x10000DE38, symSize: 0x28 }
  - { offsetInCU: 0x1E61B, offset: 0x1E61B, size: 0x8, addend: 0x0, symName: __ZNKSt3__16vectorI5EventNS_9allocatorIS1_EEE31__annotate_contiguous_containerB8ue170006EPKvS6_S6_S6_, symObjAddr: 0xBAAC, symBinAddr: 0x10000DE60, symSize: 0x20 }
  - { offsetInCU: 0x1E671, offset: 0x1E671, size: 0x8, addend: 0x0, symName: __ZNKSt3__16vectorI5EventNS_9allocatorIS1_EEE4dataB8ue170006Ev, symObjAddr: 0xBACC, symBinAddr: 0x10000DE80, symSize: 0x28 }
  - { offsetInCU: 0x1E697, offset: 0x1E697, size: 0x8, addend: 0x0, symName: __ZNSt3__19allocatorI5EventE10deallocateB8ue170006EPS1_m, symObjAddr: 0xBAF4, symBinAddr: 0x10000DEA8, symSize: 0x44 }
  - { offsetInCU: 0x1E6D9, offset: 0x1E6D9, size: 0x8, addend: 0x0, symName: __ZNSt3__117__compressed_pairIP5EventNS_9allocatorIS1_EEE6secondB8ue170006Ev, symObjAddr: 0xBB38, symBinAddr: 0x10000DEEC, symSize: 0x24 }
  - { offsetInCU: 0x1E6FF, offset: 0x1E6FF, size: 0x8, addend: 0x0, symName: __ZNSt3__122__compressed_pair_elemINS_9allocatorI5EventEELi1ELb1EE5__getB8ue170006Ev, symObjAddr: 0xBB5C, symBinAddr: 0x10000DF10, symSize: 0x14 }
  - { offsetInCU: 0x1E725, offset: 0x1E725, size: 0x8, addend: 0x0, symName: __ZNKSt3__16vectorI5EventNS_9allocatorIS1_EEE9__end_capB8ue170006Ev, symObjAddr: 0xBB70, symBinAddr: 0x10000DF24, symSize: 0x28 }
  - { offsetInCU: 0x1E74B, offset: 0x1E74B, size: 0x8, addend: 0x0, symName: __ZNKSt3__117__compressed_pairIP5EventNS_9allocatorIS1_EEE5firstB8ue170006Ev, symObjAddr: 0xBB98, symBinAddr: 0x10000DF4C, symSize: 0x24 }
  - { offsetInCU: 0x1E771, offset: 0x1E771, size: 0x8, addend: 0x0, symName: __ZNKSt3__122__compressed_pair_elemIP5EventLi0ELb0EE5__getB8ue170006Ev, symObjAddr: 0xBBBC, symBinAddr: 0x10000DF70, symSize: 0x14 }
  - { offsetInCU: 0x1E797, offset: 0x1E797, size: 0x8, addend: 0x0, symName: __ZNSt3__16vectorI5EventNS_9allocatorIS1_EEE9__end_capB8ue170006Ev, symObjAddr: 0xBBD0, symBinAddr: 0x10000DF84, symSize: 0x28 }
  - { offsetInCU: 0x1E7BD, offset: 0x1E7BD, size: 0x8, addend: 0x0, symName: __ZNSt3__16vectorI5EventNS_9allocatorIS1_EEE22__construct_one_at_endB8ue170006IJRKS1_EEEvDpOT_, symObjAddr: 0xBBF8, symBinAddr: 0x10000DFAC, symSize: 0x90 }
  - { offsetInCU: 0x1E80C, offset: 0x1E80C, size: 0x8, addend: 0x0, symName: __ZNSt3__16vectorI5EventNS_9allocatorIS1_EEE21__push_back_slow_pathIRKS1_EEvOT_, symObjAddr: 0xBC88, symBinAddr: 0x10000E03C, symSize: 0xD8 }
  - { offsetInCU: 0x1E86A, offset: 0x1E86A, size: 0x8, addend: 0x0, symName: __ZNSt3__117__compressed_pairIP5EventNS_9allocatorIS1_EEE5firstB8ue170006Ev, symObjAddr: 0xBD60, symBinAddr: 0x10000E114, symSize: 0x24 }
  - { offsetInCU: 0x1E890, offset: 0x1E890, size: 0x8, addend: 0x0, symName: __ZNSt3__122__compressed_pair_elemIP5EventLi0ELb0EE5__getB8ue170006Ev, symObjAddr: 0xBD84, symBinAddr: 0x10000E138, symSize: 0x14 }
  - { offsetInCU: 0x1E8CF, offset: 0x1E8CF, size: 0x8, addend: 0x0, symName: __ZNSt3__16vectorI5EventNS_9allocatorIS1_EEE21_ConstructTransactionC1B8ue170006ERS4_m, symObjAddr: 0xBD98, symBinAddr: 0x10000E14C, symSize: 0x3C }
  - { offsetInCU: 0x1E917, offset: 0x1E917, size: 0x8, addend: 0x0, symName: __ZNSt3__116allocator_traitsINS_9allocatorI5EventEEE9constructB8ue170006IS2_JRKS2_EvEEvRS3_PT_DpOT0_, symObjAddr: 0xBDD4, symBinAddr: 0x10000E188, symSize: 0x34 }
  - { offsetInCU: 0x1E96E, offset: 0x1E96E, size: 0x8, addend: 0x0, symName: __ZNSt3__16vectorI5EventNS_9allocatorIS1_EEE21_ConstructTransactionD1B8ue170006Ev, symObjAddr: 0xBE08, symBinAddr: 0x10000E1BC, symSize: 0x2C }
  - { offsetInCU: 0x1E998, offset: 0x1E998, size: 0x8, addend: 0x0, symName: __ZNSt3__16vectorI5EventNS_9allocatorIS1_EEE21_ConstructTransactionC2B8ue170006ERS4_m, symObjAddr: 0xBE34, symBinAddr: 0x10000E1E8, symSize: 0x4C }
  - { offsetInCU: 0x1E9E0, offset: 0x1E9E0, size: 0x8, addend: 0x0, symName: __ZNSt3__19allocatorI5EventE9constructB8ue170006IS1_JRKS1_EEEvPT_DpOT0_, symObjAddr: 0xBE80, symBinAddr: 0x10000E234, symSize: 0x30 }
  - { offsetInCU: 0x1EA36, offset: 0x1EA36, size: 0x8, addend: 0x0, symName: __ZNSt3__16vectorI5EventNS_9allocatorIS1_EEE21_ConstructTransactionD2B8ue170006Ev, symObjAddr: 0xBEB0, symBinAddr: 0x10000E264, symSize: 0x20 }
  - { offsetInCU: 0x1EA60, offset: 0x1EA60, size: 0x8, addend: 0x0, symName: __ZNKSt3__16vectorI5EventNS_9allocatorIS1_EEE11__recommendB8ue170006Em, symObjAddr: 0xBED0, symBinAddr: 0x10000E284, symSize: 0xB4 }
  - { offsetInCU: 0x1EAB5, offset: 0x1EAB5, size: 0x8, addend: 0x0, symName: __ZNSt3__114__split_bufferI5EventRNS_9allocatorIS1_EEEC1EmmS4_, symObjAddr: 0xBF84, symBinAddr: 0x10000E338, symSize: 0x44 }
  - { offsetInCU: 0x1EB0B, offset: 0x1EB0B, size: 0x8, addend: 0x0, symName: __ZNSt3__114__split_bufferI5EventRNS_9allocatorIS1_EEED1Ev, symObjAddr: 0xC0D8, symBinAddr: 0x10000E48C, symSize: 0x2C }
  - { offsetInCU: 0x1EB37, offset: 0x1EB37, size: 0x8, addend: 0x0, symName: __ZNKSt3__16vectorI5EventNS_9allocatorIS1_EEE8max_sizeEv, symObjAddr: 0xC104, symBinAddr: 0x10000E4B8, symSize: 0x60 }
  - { offsetInCU: 0x1EB5F, offset: 0x1EB5F, size: 0x8, addend: 0x0, symName: __ZNKSt3__16vectorI5EventNS_9allocatorIS1_EEE20__throw_length_errorB8ue170006Ev, symObjAddr: 0xC164, symBinAddr: 0x10000E518, symSize: 0x1C }
  - { offsetInCU: 0x1EB8F, offset: 0x1EB8F, size: 0x8, addend: 0x0, symName: __ZNSt3__116allocator_traitsINS_9allocatorI5EventEEE8max_sizeB8ue170006IS3_vEEmRKS3_, symObjAddr: 0xC180, symBinAddr: 0x10000E534, symSize: 0x24 }
  - { offsetInCU: 0x1EBBD, offset: 0x1EBBD, size: 0x8, addend: 0x0, symName: __ZNKSt3__16vectorI5EventNS_9allocatorIS1_EEE7__allocB8ue170006Ev, symObjAddr: 0xC1A4, symBinAddr: 0x10000E558, symSize: 0x28 }
  - { offsetInCU: 0x1EBE3, offset: 0x1EBE3, size: 0x8, addend: 0x0, symName: __ZNKSt3__19allocatorI5EventE8max_sizeB8ue170006Ev, symObjAddr: 0xC1CC, symBinAddr: 0x10000E580, symSize: 0x18 }
  - { offsetInCU: 0x1EC09, offset: 0x1EC09, size: 0x8, addend: 0x0, symName: __ZNKSt3__117__compressed_pairIP5EventNS_9allocatorIS1_EEE6secondB8ue170006Ev, symObjAddr: 0xC1E4, symBinAddr: 0x10000E598, symSize: 0x24 }
  - { offsetInCU: 0x1EC2F, offset: 0x1EC2F, size: 0x8, addend: 0x0, symName: __ZNKSt3__122__compressed_pair_elemINS_9allocatorI5EventEELi1ELb1EE5__getB8ue170006Ev, symObjAddr: 0xC208, symBinAddr: 0x10000E5BC, symSize: 0x14 }
  - { offsetInCU: 0x1EC55, offset: 0x1EC55, size: 0x8, addend: 0x0, symName: __ZNSt3__114__split_bufferI5EventRNS_9allocatorIS1_EEEC2EmmS4_, symObjAddr: 0xC21C, symBinAddr: 0x10000E5D0, symSize: 0xE0 }
  - { offsetInCU: 0x1ECC8, offset: 0x1ECC8, size: 0x8, addend: 0x0, symName: __ZNSt3__117__compressed_pairIP5EventRNS_9allocatorIS1_EEEC1B8ue170006IDnS5_EEOT_OT0_, symObjAddr: 0xC2FC, symBinAddr: 0x10000E6B0, symSize: 0x3C }
  - { offsetInCU: 0x1ED20, offset: 0x1ED20, size: 0x8, addend: 0x0, symName: __ZNSt3__114__split_bufferI5EventRNS_9allocatorIS1_EEE7__allocB8ue170006Ev, symObjAddr: 0xC378, symBinAddr: 0x10000E72C, symSize: 0x28 }
  - { offsetInCU: 0x1ED46, offset: 0x1ED46, size: 0x8, addend: 0x0, symName: __ZNSt3__114__split_bufferI5EventRNS_9allocatorIS1_EEE9__end_capB8ue170006Ev, symObjAddr: 0xC3A0, symBinAddr: 0x10000E754, symSize: 0x28 }
  - { offsetInCU: 0x1ED6C, offset: 0x1ED6C, size: 0x8, addend: 0x0, symName: __ZNSt3__117__compressed_pairIP5EventRNS_9allocatorIS1_EEEC2B8ue170006IDnS5_EEOT_OT0_, symObjAddr: 0xC3C8, symBinAddr: 0x10000E77C, symSize: 0x48 }
  - { offsetInCU: 0x1EDC4, offset: 0x1EDC4, size: 0x8, addend: 0x0, symName: __ZNSt3__122__compressed_pair_elemIRNS_9allocatorI5EventEELi1ELb0EEC2B8ue170006IS4_vEEOT_, symObjAddr: 0xC410, symBinAddr: 0x10000E7C4, symSize: 0x20 }
  - { offsetInCU: 0x1EE06, offset: 0x1EE06, size: 0x8, addend: 0x0, symName: __ZNSt3__19allocatorI5EventE8allocateB8ue170006Em, symObjAddr: 0xC430, symBinAddr: 0x10000E7E4, symSize: 0x5C }
  - { offsetInCU: 0x1EE3A, offset: 0x1EE3A, size: 0x8, addend: 0x0, symName: __ZNSt3__117__compressed_pairIP5EventRNS_9allocatorIS1_EEE6secondB8ue170006Ev, symObjAddr: 0xC48C, symBinAddr: 0x10000E840, symSize: 0x28 }
  - { offsetInCU: 0x1EE60, offset: 0x1EE60, size: 0x8, addend: 0x0, symName: __ZNSt3__122__compressed_pair_elemIRNS_9allocatorI5EventEELi1ELb0EE5__getB8ue170006Ev, symObjAddr: 0xC4B4, symBinAddr: 0x10000E868, symSize: 0x18 }
  - { offsetInCU: 0x1EE86, offset: 0x1EE86, size: 0x8, addend: 0x0, symName: __ZNSt3__117__compressed_pairIP5EventRNS_9allocatorIS1_EEE5firstB8ue170006Ev, symObjAddr: 0xC4CC, symBinAddr: 0x10000E880, symSize: 0x24 }
  - { offsetInCU: 0x1EEAC, offset: 0x1EEAC, size: 0x8, addend: 0x0, symName: __ZNSt3__116reverse_iteratorIP5EventEC1B8ue170006ES2_, symObjAddr: 0xC61C, symBinAddr: 0x10000E9D0, symSize: 0x34 }
  - { offsetInCU: 0x1EEE4, offset: 0x1EEE4, size: 0x8, addend: 0x0, symName: __ZNKSt3__116reverse_iteratorIP5EventE4baseB8ue170006Ev, symObjAddr: 0xC650, symBinAddr: 0x10000EA04, symSize: 0x18 }
  - { offsetInCU: 0x1EF0A, offset: 0x1EF0A, size: 0x8, addend: 0x0, symName: __ZNKSt3__16vectorI5EventNS_9allocatorIS1_EEE14__annotate_newB8ue170006Em, symObjAddr: 0xC6A4, symBinAddr: 0x10000EA58, symSize: 0xC8 }
  - { offsetInCU: 0x1EF3F, offset: 0x1EF3F, size: 0x8, addend: 0x0, symName: __ZNSt3__129_AllocatorDestroyRangeReverseINS_9allocatorI5EventEENS_16reverse_iteratorIPS2_EEEC1B8ue170006ERS3_RS6_S9_, symObjAddr: 0xC7B8, symBinAddr: 0x10000EB6C, symSize: 0x44 }
  - { offsetInCU: 0x1EF96, offset: 0x1EF96, size: 0x8, addend: 0x0, symName: __ZNSt3__116allocator_traitsINS_9allocatorI5EventEEE9constructB8ue170006IS2_JS2_EvEEvRS3_PT_DpOT0_, symObjAddr: 0xC844, symBinAddr: 0x10000EBF8, symSize: 0x34 }
  - { offsetInCU: 0x1EFED, offset: 0x1EFED, size: 0x8, addend: 0x0, symName: __ZNKSt3__116reverse_iteratorIP5EventEdeB8ue170006Ev, symObjAddr: 0xC89C, symBinAddr: 0x10000EC50, symSize: 0x28 }
  - { offsetInCU: 0x1F021, offset: 0x1F021, size: 0x8, addend: 0x0, symName: __ZNSt3__116reverse_iteratorIP5EventEppB8ue170006Ev, symObjAddr: 0xC8C4, symBinAddr: 0x10000EC78, symSize: 0x20 }
  - { offsetInCU: 0x1F047, offset: 0x1F047, size: 0x8, addend: 0x0, symName: __ZNSt3__128__exception_guard_exceptionsINS_29_AllocatorDestroyRangeReverseINS_9allocatorI5EventEENS_16reverse_iteratorIPS3_EEEEE10__completeB8ue170006Ev, symObjAddr: 0xC8E4, symBinAddr: 0x10000EC98, symSize: 0x1C }
  - { offsetInCU: 0x1F06D, offset: 0x1F06D, size: 0x8, addend: 0x0, symName: __ZNSt3__128__exception_guard_exceptionsINS_29_AllocatorDestroyRangeReverseINS_9allocatorI5EventEENS_16reverse_iteratorIPS3_EEEEED1B8ue170006Ev, symObjAddr: 0xC900, symBinAddr: 0x10000ECB4, symSize: 0x2C }
  - { offsetInCU: 0x1F097, offset: 0x1F097, size: 0x8, addend: 0x0, symName: __ZNSt3__128__exception_guard_exceptionsINS_29_AllocatorDestroyRangeReverseINS_9allocatorI5EventEENS_16reverse_iteratorIPS3_EEEEEC1B8ue170006ES8_, symObjAddr: 0xC92C, symBinAddr: 0x10000ECE0, symSize: 0x34 }
  - { offsetInCU: 0x1F0D0, offset: 0x1F0D0, size: 0x8, addend: 0x0, symName: __ZNSt3__128__exception_guard_exceptionsINS_29_AllocatorDestroyRangeReverseINS_9allocatorI5EventEENS_16reverse_iteratorIPS3_EEEEEC2B8ue170006ES8_, symObjAddr: 0xC960, symBinAddr: 0x10000ED14, symSize: 0x30 }
  - { offsetInCU: 0x1F109, offset: 0x1F109, size: 0x8, addend: 0x0, symName: __ZNSt3__129_AllocatorDestroyRangeReverseINS_9allocatorI5EventEENS_16reverse_iteratorIPS2_EEEC2B8ue170006ERS3_RS6_S9_, symObjAddr: 0xC990, symBinAddr: 0x10000ED44, symSize: 0x38 }
  - { offsetInCU: 0x1F160, offset: 0x1F160, size: 0x8, addend: 0x0, symName: __ZNSt3__19allocatorI5EventE9constructB8ue170006IS1_JS1_EEEvPT_DpOT0_, symObjAddr: 0xC9C8, symBinAddr: 0x10000ED7C, symSize: 0x30 }
  - { offsetInCU: 0x1F1B6, offset: 0x1F1B6, size: 0x8, addend: 0x0, symName: __ZN5EventC1EOS_, symObjAddr: 0xC9F8, symBinAddr: 0x10000EDAC, symSize: 0x34 }
  - { offsetInCU: 0x1F1EB, offset: 0x1F1EB, size: 0x8, addend: 0x0, symName: __ZN5EventC2EOS_, symObjAddr: 0xCA2C, symBinAddr: 0x10000EDE0, symSize: 0x48 }
  - { offsetInCU: 0x1F225, offset: 0x1F225, size: 0x8, addend: 0x0, symName: __ZNSt3__119__to_address_helperINS_16reverse_iteratorIP5EventEEvE6__callB8ue170006ERKS4_, symObjAddr: 0xCA74, symBinAddr: 0x10000EE28, symSize: 0x38 }
  - { offsetInCU: 0x1F248, offset: 0x1F248, size: 0x8, addend: 0x0, symName: __ZNKSt3__116reverse_iteratorIP5EventEptB8ue170006Ev, symObjAddr: 0xCAAC, symBinAddr: 0x10000EE60, symSize: 0x24 }
  - { offsetInCU: 0x1F26E, offset: 0x1F26E, size: 0x8, addend: 0x0, symName: __ZNSt3__128__exception_guard_exceptionsINS_29_AllocatorDestroyRangeReverseINS_9allocatorI5EventEENS_16reverse_iteratorIPS3_EEEEED2B8ue170006Ev, symObjAddr: 0xCAD0, symBinAddr: 0x10000EE84, symSize: 0x50 }
  - { offsetInCU: 0x1F298, offset: 0x1F298, size: 0x8, addend: 0x0, symName: __ZNKSt3__129_AllocatorDestroyRangeReverseINS_9allocatorI5EventEENS_16reverse_iteratorIPS2_EEEclB8ue170006Ev, symObjAddr: 0xCB20, symBinAddr: 0x10000EED4, symSize: 0xB4 }
  - { offsetInCU: 0x1F2BF, offset: 0x1F2BF, size: 0x8, addend: 0x0, symName: __ZNSt3__116reverse_iteratorINS0_IP5EventEEEC1B8ue170006ES3_, symObjAddr: 0xCC44, symBinAddr: 0x10000EFF8, symSize: 0x3C }
  - { offsetInCU: 0x1F2F7, offset: 0x1F2F7, size: 0x8, addend: 0x0, symName: __ZNSt3__116reverse_iteratorINS0_IP5EventEEEppB8ue170006Ev, symObjAddr: 0xCD04, symBinAddr: 0x10000F0B8, symSize: 0x30 }
  - { offsetInCU: 0x1F31D, offset: 0x1F31D, size: 0x8, addend: 0x0, symName: __ZNKSt3__116reverse_iteratorINS0_IP5EventEEE4baseB8ue170006Ev, symObjAddr: 0xCD34, symBinAddr: 0x10000F0E8, symSize: 0x24 }
  - { offsetInCU: 0x1F348, offset: 0x1F348, size: 0x8, addend: 0x0, symName: __ZNSt3__119__to_address_helperINS_16reverse_iteratorINS1_IP5EventEEEEvE6__callB8ue170006ERKS5_, symObjAddr: 0xCD58, symBinAddr: 0x10000F10C, symSize: 0x38 }
  - { offsetInCU: 0x1F36B, offset: 0x1F36B, size: 0x8, addend: 0x0, symName: __ZNKSt3__116reverse_iteratorINS0_IP5EventEEEptB8ue170006Ev, symObjAddr: 0xCD90, symBinAddr: 0x10000F144, symSize: 0x24 }
  - { offsetInCU: 0x1F391, offset: 0x1F391, size: 0x8, addend: 0x0, symName: __ZNKSt3__116reverse_iteratorINS0_IP5EventEEEdeB8ue170006Ev, symObjAddr: 0xCDB4, symBinAddr: 0x10000F168, symSize: 0x34 }
  - { offsetInCU: 0x1F3C5, offset: 0x1F3C5, size: 0x8, addend: 0x0, symName: __ZNSt3__116reverse_iteratorIP5EventEmmB8ue170006Ev, symObjAddr: 0xCDE8, symBinAddr: 0x10000F19C, symSize: 0x20 }
  - { offsetInCU: 0x1F3EB, offset: 0x1F3EB, size: 0x8, addend: 0x0, symName: __ZNSt3__116reverse_iteratorINS0_IP5EventEEEC2B8ue170006ES3_, symObjAddr: 0xCE08, symBinAddr: 0x10000F1BC, symSize: 0x2C }
  - { offsetInCU: 0x1F423, offset: 0x1F423, size: 0x8, addend: 0x0, symName: __ZNSt3__116reverse_iteratorIP5EventEC2B8ue170006ES2_, symObjAddr: 0xCE34, symBinAddr: 0x10000F1E8, symSize: 0x28 }
  - { offsetInCU: 0x1F45B, offset: 0x1F45B, size: 0x8, addend: 0x0, symName: __ZNSt3__114__split_bufferI5EventRNS_9allocatorIS1_EEED2Ev, symObjAddr: 0xCE5C, symBinAddr: 0x10000F210, symSize: 0x8C }
  - { offsetInCU: 0x1F487, offset: 0x1F487, size: 0x8, addend: 0x0, symName: __ZNSt3__114__split_bufferI5EventRNS_9allocatorIS1_EEE5clearB8ue170006Ev, symObjAddr: 0xCEE8, symBinAddr: 0x10000F29C, symSize: 0x28 }
  - { offsetInCU: 0x1F4AD, offset: 0x1F4AD, size: 0x8, addend: 0x0, symName: __ZNKSt3__114__split_bufferI5EventRNS_9allocatorIS1_EEE8capacityB8ue170006Ev, symObjAddr: 0xCF10, symBinAddr: 0x10000F2C4, symSize: 0x40 }
  - { offsetInCU: 0x1F4D3, offset: 0x1F4D3, size: 0x8, addend: 0x0, symName: __ZNSt3__114__split_bufferI5EventRNS_9allocatorIS1_EEE17__destruct_at_endB8ue170006EPS1_, symObjAddr: 0xCF50, symBinAddr: 0x10000F304, symSize: 0x2C }
  - { offsetInCU: 0x1F507, offset: 0x1F507, size: 0x8, addend: 0x0, symName: __ZNSt3__114__split_bufferI5EventRNS_9allocatorIS1_EEE17__destruct_at_endB8ue170006EPS1_NS_17integral_constantIbLb0EEE, symObjAddr: 0xCF7C, symBinAddr: 0x10000F330, symSize: 0x80 }
  - { offsetInCU: 0x1F548, offset: 0x1F548, size: 0x8, addend: 0x0, symName: __ZNKSt3__114__split_bufferI5EventRNS_9allocatorIS1_EEE9__end_capB8ue170006Ev, symObjAddr: 0xCFFC, symBinAddr: 0x10000F3B0, symSize: 0x28 }
  - { offsetInCU: 0x1F56E, offset: 0x1F56E, size: 0x8, addend: 0x0, symName: __ZNKSt3__117__compressed_pairIP5EventRNS_9allocatorIS1_EEE5firstB8ue170006Ev, symObjAddr: 0xD024, symBinAddr: 0x10000F3D8, symSize: 0x24 }
  - { offsetInCU: 0x1F594, offset: 0x1F594, size: 0x8, addend: 0x0, symName: __ZNSt3__115basic_streambufIcNS_11char_traitsIcEEE5sgetcB8ue170006Ev, symObjAddr: 0xD048, symBinAddr: 0x10000F3FC, symSize: 0x70 }
  - { offsetInCU: 0x1F5BA, offset: 0x1F5BA, size: 0x8, addend: 0x0, symName: __ZNKSt3__15ctypeIcE2isB8ue170006Ejc, symObjAddr: 0xD0B8, symBinAddr: 0x10000F46C, symSize: 0x7C }
  - { offsetInCU: 0x1F5FD, offset: 0x1F5FD, size: 0x8, addend: 0x0, symName: __Z7isasciii, symObjAddr: 0xD134, symBinAddr: 0x10000F4E8, symSize: 0x24 }
  - { offsetInCU: 0x1F62A, offset: 0x1F62A, size: 0x8, addend: 0x0, symName: __ZNSt3__111char_traitsIcE7compareB8ue170006EPKcS3_m, symObjAddr: 0xD158, symBinAddr: 0x10000F50C, symSize: 0x34 }
  - { offsetInCU: 0x26, offset: 0x1F873, size: 0x8, addend: 0x0, symName: _main, symObjAddr: 0x0, symBinAddr: 0x10000F540, symSize: 0x84 }
  - { offsetInCU: 0x498B, offset: 0x241D8, size: 0x8, addend: 0x0, symName: _main, symObjAddr: 0x0, symBinAddr: 0x10000F540, symSize: 0x84 }
  - { offsetInCU: 0x520F, offset: 0x24A5C, size: 0x8, addend: 0x0, symName: __ZN4GameD1Ev, symObjAddr: 0x84, symBinAddr: 0x10000F5C4, symSize: 0x2C }
  - { offsetInCU: 0x523B, offset: 0x24A88, size: 0x8, addend: 0x0, symName: __ZN4GameD2Ev, symObjAddr: 0xB0, symBinAddr: 0x10000F5F0, symSize: 0x14C }
  - { offsetInCU: 0x4C94, offset: 0x2974D, size: 0x8, addend: 0x0, symName: __ZN6PlayerC2Ev, symObjAddr: 0x0, symBinAddr: 0x10000F73C, symSize: 0xC8 }
  - { offsetInCU: 0x4CD4, offset: 0x2978D, size: 0x8, addend: 0x0, symName: __ZN6PlayerC1Ev, symObjAddr: 0x14C, symBinAddr: 0x10000F804, symSize: 0x2C }
  - { offsetInCU: 0x4D00, offset: 0x297B9, size: 0x8, addend: 0x0, symName: __ZN6PlayerC2ENSt3__112basic_stringIcNS0_11char_traitsIcEENS0_9allocatorIcEEEEiiiii, symObjAddr: 0x178, symBinAddr: 0x10000F830, symSize: 0x1A8 }
  - { offsetInCU: 0x4D80, offset: 0x29839, size: 0x8, addend: 0x0, symName: __ZN6PlayerC1ENSt3__112basic_stringIcNS0_11char_traitsIcEENS0_9allocatorIcEEEEiiiii, symObjAddr: 0x320, symBinAddr: 0x10000F9D8, symSize: 0x5C }
  - { offsetInCU: 0x4E00, offset: 0x298B9, size: 0x8, addend: 0x0, symName: __ZN6Player7getNameEv, symObjAddr: 0x37C, symBinAddr: 0x10000FA34, symSize: 0x38 }
  - { offsetInCU: 0x4E28, offset: 0x298E1, size: 0x8, addend: 0x0, symName: __ZN6Player11getStrengthEv, symObjAddr: 0x3B4, symBinAddr: 0x10000FA6C, symSize: 0x18 }
  - { offsetInCU: 0x4E50, offset: 0x29909, size: 0x8, addend: 0x0, symName: __ZN6Player10getStaminaEv, symObjAddr: 0x3CC, symBinAddr: 0x10000FA84, symSize: 0x18 }
  - { offsetInCU: 0x4E78, offset: 0x29931, size: 0x8, addend: 0x0, symName: __ZN6Player9getWisdomEv, symObjAddr: 0x3E4, symBinAddr: 0x10000FA9C, symSize: 0x18 }
  - { offsetInCU: 0x4EA0, offset: 0x29959, size: 0x8, addend: 0x0, symName: __ZN6Player14getPridePointsEv, symObjAddr: 0x3FC, symBinAddr: 0x10000FAB4, symSize: 0x18 }
  - { offsetInCU: 0x4EC8, offset: 0x29981, size: 0x8, addend: 0x0, symName: __ZN6Player6getAgeEv, symObjAddr: 0x414, symBinAddr: 0x10000FACC, symSize: 0x18 }
  - { offsetInCU: 0x4EF0, offset: 0x299A9, size: 0x8, addend: 0x0, symName: __ZN6Player6getEndEv, symObjAddr: 0x42C, symBinAddr: 0x10000FAE4, symSize: 0x1C }
  - { offsetInCU: 0x4F18, offset: 0x299D1, size: 0x8, addend: 0x0, symName: __ZN6Player6setEndEb, symObjAddr: 0x448, symBinAddr: 0x10000FB00, symSize: 0x2C }
  - { offsetInCU: 0x4F4E, offset: 0x29A07, size: 0x8, addend: 0x0, symName: __ZN6Player7setNameENSt3__112basic_stringIcNS0_11char_traitsIcEENS0_9allocatorIcEEEE, symObjAddr: 0x474, symBinAddr: 0x10000FB2C, symSize: 0x2C }
  - { offsetInCU: 0x4F85, offset: 0x29A3E, size: 0x8, addend: 0x0, symName: __ZN6Player11setStrengthEi, symObjAddr: 0x4A0, symBinAddr: 0x10000FB58, symSize: 0x20 }
  - { offsetInCU: 0x4FBB, offset: 0x29A74, size: 0x8, addend: 0x0, symName: __ZN6Player10setStaminaEi, symObjAddr: 0x4C0, symBinAddr: 0x10000FB78, symSize: 0x20 }
  - { offsetInCU: 0x4FF1, offset: 0x29AAA, size: 0x8, addend: 0x0, symName: __ZN6Player9setWisdomEi, symObjAddr: 0x4E0, symBinAddr: 0x10000FB98, symSize: 0x20 }
  - { offsetInCU: 0x5027, offset: 0x29AE0, size: 0x8, addend: 0x0, symName: __ZN6Player14setPridePointsEi, symObjAddr: 0x500, symBinAddr: 0x10000FBB8, symSize: 0x20 }
  - { offsetInCU: 0x505D, offset: 0x29B16, size: 0x8, addend: 0x0, symName: __ZN6Player6setAgeEi, symObjAddr: 0x520, symBinAddr: 0x10000FBD8, symSize: 0x20 }
  - { offsetInCU: 0x5093, offset: 0x29B4C, size: 0x8, addend: 0x0, symName: __ZN6Player11prideChangeEi, symObjAddr: 0x540, symBinAddr: 0x10000FBF8, symSize: 0x80 }
  - { offsetInCU: 0x50C9, offset: 0x29B82, size: 0x8, addend: 0x0, symName: __ZN6Player10printStatsEv, symObjAddr: 0x68C, symBinAddr: 0x10000FC78, symSize: 0x148 }
  - { offsetInCU: 0x50F1, offset: 0x29BAA, size: 0x8, addend: 0x0, symName: __ZN6Player8trainCubEv, symObjAddr: 0x7D4, symBinAddr: 0x10000FDC0, symSize: 0xC0 }
  - { offsetInCU: 0x5119, offset: 0x29BD2, size: 0x8, addend: 0x0, symName: __ZN6Player5trainEiii, symObjAddr: 0x894, symBinAddr: 0x10000FE80, symSize: 0xA8 }
  - { offsetInCU: 0x516B, offset: 0x29C24, size: 0x8, addend: 0x0, symName: __ZN6Player12toPrideLandsEv, symObjAddr: 0x93C, symBinAddr: 0x10000FF28, symSize: 0xD8 }
  - { offsetInCU: 0x5193, offset: 0x29C4C, size: 0x8, addend: 0x0, symName: __ZN6Player10getAdvisorEv, symObjAddr: 0xA60, symBinAddr: 0x100010000, symSize: 0x3C }
  - { offsetInCU: 0x51C0, offset: 0x29C79, size: 0x8, addend: 0x0, symName: __ZN6Player10setAdvisorE7Advisor, symObjAddr: 0xAD0, symBinAddr: 0x10001003C, symSize: 0x30 }
  - { offsetInCU: 0x51FC, offset: 0x29CB5, size: 0x8, addend: 0x0, symName: __ZN6Player13chooseAdvisorEi, symObjAddr: 0xB6C, symBinAddr: 0x10001006C, symSize: 0x70 }
  - { offsetInCU: 0x5232, offset: 0x29CEB, size: 0x8, addend: 0x0, symName: __ZN6Player12printAdvisorEv, symObjAddr: 0xBDC, symBinAddr: 0x1000100DC, symSize: 0x13C }
  - { offsetInCU: 0x5269, offset: 0x29D22, size: 0x8, addend: 0x0, symName: __ZN6Player12checkAdvisorEv, symObjAddr: 0xD18, symBinAddr: 0x100010218, symSize: 0x1C }
  - { offsetInCU: 0x5291, offset: 0x29D4A, size: 0x8, addend: 0x0, symName: __ZN6Player11editAdvisorEb, symObjAddr: 0xD34, symBinAddr: 0x100010234, symSize: 0x2C }
  - { offsetInCU: 0x48A1, offset: 0x2E626, size: 0x8, addend: 0x0, symName: __ZN5BoardC2Ev, symObjAddr: 0x0, symBinAddr: 0x100010260, symSize: 0xFC }
  - { offsetInCU: 0x4921, offset: 0x2E6A6, size: 0x8, addend: 0x0, symName: __ZN5BoardC1Ev, symObjAddr: 0xFC, symBinAddr: 0x10001035C, symSize: 0x2C }
  - { offsetInCU: 0x494D, offset: 0x2E6D2, size: 0x8, addend: 0x0, symName: __ZN5Board15initializeBoardEv, symObjAddr: 0x128, symBinAddr: 0x100010388, symSize: 0x60 }
  - { offsetInCU: 0x4991, offset: 0x2E716, size: 0x8, addend: 0x0, symName: __ZN5Board15initializeTilesEi, symObjAddr: 0x188, symBinAddr: 0x1000103E8, symSize: 0x388 }
  - { offsetInCU: 0x4A99, offset: 0x2E81E, size: 0x8, addend: 0x0, symName: __ZN5Board11getPathTypeEi, symObjAddr: 0x510, symBinAddr: 0x100010770, symSize: 0x2C }
  - { offsetInCU: 0x4ACF, offset: 0x2E854, size: 0x8, addend: 0x0, symName: __ZN5BoardC2EiPi, symObjAddr: 0x53C, symBinAddr: 0x10001079C, symSize: 0xD4 }
  - { offsetInCU: 0x4B33, offset: 0x2E8B8, size: 0x8, addend: 0x0, symName: __ZN5BoardC1EiPi, symObjAddr: 0x610, symBinAddr: 0x100010870, symSize: 0x3C }
  - { offsetInCU: 0x4B7B, offset: 0x2E900, size: 0x8, addend: 0x0, symName: __ZN5Board14isPlayerOnTileEii, symObjAddr: 0x64C, symBinAddr: 0x1000108AC, symSize: 0x6C }
  - { offsetInCU: 0x4BBF, offset: 0x2E944, size: 0x8, addend: 0x0, symName: __ZN5Board11displayTileEii, symObjAddr: 0x6B8, symBinAddr: 0x100010918, symSize: 0x384 }
  - { offsetInCU: 0x4C24, offset: 0x2E9A9, size: 0x8, addend: 0x0, symName: __ZN5Board12displayTrackEi, symObjAddr: 0xB30, symBinAddr: 0x100010C9C, symSize: 0x7C }
  - { offsetInCU: 0x4C76, offset: 0x2E9FB, size: 0x8, addend: 0x0, symName: __ZN5Board12displayBoardEv, symObjAddr: 0xC30, symBinAddr: 0x100010D18, symSize: 0x8C }
  - { offsetInCU: 0x4CBA, offset: 0x2EA3F, size: 0x8, addend: 0x0, symName: __ZN5Board10movePlayerEii, symObjAddr: 0xCBC, symBinAddr: 0x100010DA4, symSize: 0xFC }
  - { offsetInCU: 0x4CFE, offset: 0x2EA83, size: 0x8, addend: 0x0, symName: __ZNK5Board17getPlayerPositionEi, symObjAddr: 0xDB8, symBinAddr: 0x100010EA0, symSize: 0x74 }
  - { offsetInCU: 0x4D34, offset: 0x2EAB9, size: 0x8, addend: 0x0, symName: __ZN5Board12getTileColorEii, symObjAddr: 0xE2C, symBinAddr: 0x100010F14, symSize: 0x80 }
  - { offsetInCU: 0x4D78, offset: 0x2EAFD, size: 0x8, addend: 0x0, symName: __ZN5Board7getRollEv, symObjAddr: 0xEAC, symBinAddr: 0x100010F94, symSize: 0x18 }
  - { offsetInCU: 0x4DA0, offset: 0x2EB25, size: 0x8, addend: 0x0, symName: __ZN5Board7setRollEi, symObjAddr: 0xEC4, symBinAddr: 0x100010FAC, symSize: 0x20 }
  - { offsetInCU: 0x496A, offset: 0x334CF, size: 0x8, addend: 0x0, symName: __ZN7AdvisorC2Ev, symObjAddr: 0x0, symBinAddr: 0x100010FCC, symSize: 0xA8 }
  - { offsetInCU: 0x4996, offset: 0x334FB, size: 0x8, addend: 0x0, symName: __ZN7AdvisorC1Ev, symObjAddr: 0x100, symBinAddr: 0x100011074, symSize: 0x2C }
  - { offsetInCU: 0x49C2, offset: 0x33527, size: 0x8, addend: 0x0, symName: __ZN7AdvisorC2EiNSt3__112basic_stringIcNS0_11char_traitsIcEENS0_9allocatorIcEEEES6_, symObjAddr: 0x12C, symBinAddr: 0x1000110A0, symSize: 0xB8 }
  - { offsetInCU: 0x4A19, offset: 0x3357E, size: 0x8, addend: 0x0, symName: __ZN7AdvisorC1EiNSt3__112basic_stringIcNS0_11char_traitsIcEENS0_9allocatorIcEEEES6_, symObjAddr: 0x1E4, symBinAddr: 0x100011158, symSize: 0x44 }
  - { offsetInCU: 0x4A70, offset: 0x335D5, size: 0x8, addend: 0x0, symName: __ZN7Advisor5getIDEv, symObjAddr: 0x228, symBinAddr: 0x10001119C, symSize: 0x18 }
  - { offsetInCU: 0x4A98, offset: 0x335FD, size: 0x8, addend: 0x0, symName: __ZN7Advisor7getNameEv, symObjAddr: 0x240, symBinAddr: 0x1000111B4, symSize: 0x3C }
  - { offsetInCU: 0x4AC0, offset: 0x33625, size: 0x8, addend: 0x0, symName: __ZN7Advisor10getAbilityEv, symObjAddr: 0x27C, symBinAddr: 0x1000111F0, symSize: 0x3C }
  - { offsetInCU: 0x4AE8, offset: 0x3364D, size: 0x8, addend: 0x0, symName: __ZNK7Advisor8isChosenEv, symObjAddr: 0x2B8, symBinAddr: 0x10001122C, symSize: 0x1C }
  - { offsetInCU: 0x4B10, offset: 0x33675, size: 0x8, addend: 0x0, symName: __ZN7Advisor9setChosenEb, symObjAddr: 0x2D4, symBinAddr: 0x100011248, symSize: 0x2C }
  - { offsetInCU: 0x4B46, offset: 0x336AB, size: 0x8, addend: 0x0, symName: __ZN7Advisor12printAdvisorEv, symObjAddr: 0x300, symBinAddr: 0x100011274, symSize: 0x68 }
  - { offsetInCU: 0x4956, offset: 0x38033, size: 0x8, addend: 0x0, symName: __ZN5EventC2Ev, symObjAddr: 0x0, symBinAddr: 0x1000112DC, symSize: 0x70 }
  - { offsetInCU: 0x4982, offset: 0x3805F, size: 0x8, addend: 0x0, symName: __ZN5EventC1Ev, symObjAddr: 0xC8, symBinAddr: 0x10001134C, symSize: 0x2C }
  - { offsetInCU: 0x49AE, offset: 0x3808B, size: 0x8, addend: 0x0, symName: __ZN5EventC2ENSt3__112basic_stringIcNS0_11char_traitsIcEENS0_9allocatorIcEEEEiii, symObjAddr: 0xF4, symBinAddr: 0x100011378, symSize: 0x8C }
  - { offsetInCU: 0x4A13, offset: 0x380F0, size: 0x8, addend: 0x0, symName: __ZN5EventC1ENSt3__112basic_stringIcNS0_11char_traitsIcEENS0_9allocatorIcEEEEiii, symObjAddr: 0x180, symBinAddr: 0x100011404, symSize: 0x4C }
  - { offsetInCU: 0x4A78, offset: 0x38155, size: 0x8, addend: 0x0, symName: __ZN5Event7getPathEv, symObjAddr: 0x1CC, symBinAddr: 0x100011450, symSize: 0x18 }
  - { offsetInCU: 0x4AA0, offset: 0x3817D, size: 0x8, addend: 0x0, symName: __ZN5Event7getAdIDEv, symObjAddr: 0x1E4, symBinAddr: 0x100011468, symSize: 0x18 }
  - { offsetInCU: 0x4AC8, offset: 0x381A5, size: 0x8, addend: 0x0, symName: __ZN5Event5getPPEv, symObjAddr: 0x1FC, symBinAddr: 0x100011480, symSize: 0x18 }
  - { offsetInCU: 0x4AF0, offset: 0x381CD, size: 0x8, addend: 0x0, symName: __ZN5Event6getDesEv, symObjAddr: 0x214, symBinAddr: 0x100011498, symSize: 0x38 }
  - { offsetInCU: 0x491C, offset: 0x3CB16, size: 0x8, addend: 0x0, symName: __ZN7RiddlesC2Ev, symObjAddr: 0x0, symBinAddr: 0x1000114D0, symSize: 0x94 }
  - { offsetInCU: 0x4948, offset: 0x3CB42, size: 0x8, addend: 0x0, symName: __ZN7RiddlesC1Ev, symObjAddr: 0xEC, symBinAddr: 0x100011564, symSize: 0x2C }
  - { offsetInCU: 0x4974, offset: 0x3CB6E, size: 0x8, addend: 0x0, symName: __ZN7RiddlesC2ENSt3__112basic_stringIcNS0_11char_traitsIcEENS0_9allocatorIcEEEES6_, symObjAddr: 0x118, symBinAddr: 0x100011590, symSize: 0x9C }
  - { offsetInCU: 0x49BE, offset: 0x3CBB8, size: 0x8, addend: 0x0, symName: __ZN7RiddlesC1ENSt3__112basic_stringIcNS0_11char_traitsIcEENS0_9allocatorIcEEEES6_, symObjAddr: 0x1B4, symBinAddr: 0x10001162C, symSize: 0x3C }
  - { offsetInCU: 0x4A08, offset: 0x3CC02, size: 0x8, addend: 0x0, symName: __ZN7Riddles10getQuetionEv, symObjAddr: 0x1F0, symBinAddr: 0x100011668, symSize: 0x38 }
  - { offsetInCU: 0x4A30, offset: 0x3CC2A, size: 0x8, addend: 0x0, symName: __ZN7Riddles9getAnswerEv, symObjAddr: 0x228, symBinAddr: 0x1000116A0, symSize: 0x3C }
  - { offsetInCU: 0x4A58, offset: 0x3CC52, size: 0x8, addend: 0x0, symName: __ZN7Riddles10setQuetionENSt3__112basic_stringIcNS0_11char_traitsIcEENS0_9allocatorIcEEEE, symObjAddr: 0x264, symBinAddr: 0x1000116DC, symSize: 0x2C }
  - { offsetInCU: 0x4A8F, offset: 0x3CC89, size: 0x8, addend: 0x0, symName: __ZN7Riddles9setAnswerENSt3__112basic_stringIcNS0_11char_traitsIcEENS0_9allocatorIcEEEE, symObjAddr: 0x290, symBinAddr: 0x100011708, symSize: 0x30 }
...
